
app.out:     file format elf32-littlearm


Disassembly of section .startcode:

80000000 <Entry>:
80000000:	e59f009c 	ldr	r0, [pc, #156]	; 800000a4 <Loop+0x1c>
80000004:	e321f0db 	msr	CPSR_c, #219	; 0xdb
80000008:	e1a0d000 	mov	sp, r0
8000000c:	e2400008 	sub	r0, r0, #8
80000010:	e321f0d7 	msr	CPSR_c, #215	; 0xd7
80000014:	e1a0d000 	mov	sp, r0
80000018:	e2400008 	sub	r0, r0, #8
8000001c:	e321f0d1 	msr	CPSR_c, #209	; 0xd1
80000020:	e1a0d000 	mov	sp, r0
80000024:	e2400008 	sub	r0, r0, #8
80000028:	e321f0d2 	msr	CPSR_c, #210	; 0xd2
8000002c:	e1a0d000 	mov	sp, r0
80000030:	e2400a01 	sub	r0, r0, #4096	; 0x1000
80000034:	e321f0d3 	msr	CPSR_c, #211	; 0xd3
80000038:	e1a0d000 	mov	sp, r0
8000003c:	e2400008 	sub	r0, r0, #8
80000040:	e321f0df 	msr	CPSR_c, #223	; 0xdf
80000044:	e1a0d000 	mov	sp, r0
80000048:	e3a00000 	mov	r0, #0
8000004c:	ee070fd5 	mcr	15, 0, r0, cr7, cr5, {6}
80000050:	f57ff06f 	isb	sy
80000054:	ee110f10 	mrc	15, 0, r0, cr1, cr0, {0}
80000058:	e3800b02 	orr	r0, r0, #2048	; 0x800
8000005c:	ee010f10 	mcr	15, 0, r0, cr1, cr0, {0}
80000060:	ee111f50 	mrc	15, 0, r1, cr1, cr0, {2}
80000064:	e381160f 	orr	r1, r1, #15728640	; 0xf00000
80000068:	ee011f50 	mcr	15, 0, r1, cr1, cr0, {2}
8000006c:	e3a01000 	mov	r1, #0
80000070:	ee071f95 	mcr	15, 0, r1, cr7, cr5, {4}
80000074:	e3a00101 	mov	r0, #1073741824	; 0x40000000
80000078:	eee80a10 	vmsr	fpexc, r0

8000007c <Clear_Bss_Section>:
8000007c:	e59f0024 	ldr	r0, [pc, #36]	; 800000a8 <Loop+0x20>
80000080:	e59f1024 	ldr	r1, [pc, #36]	; 800000ac <Loop+0x24>
80000084:	e3a02000 	mov	r2, #0

80000088 <Loop>:
80000088:	e4802004 	str	r2, [r0], #4
8000008c:	e1500001 	cmp	r0, r1
80000090:	dafffffc 	ble	80000088 <Loop>
80000094:	e59fa014 	ldr	sl, [pc, #20]	; 800000b0 <Loop+0x28>
80000098:	e1a0e00f 	mov	lr, pc
8000009c:	e12fff1a 	bx	sl
800000a0:	e24ff008 	sub	pc, pc, #8
800000a4:	88008870 	.word	0x88008870
800000a8:	80001d68 	.word	0x80001d68
800000ac:	80008074 	.word	0x80008074
800000b0:	80000124 	.word	0x80000124

Disassembly of section .text:

800000b4 <bad1>:
800000b4:	e52de004 	push	{lr}		; (str lr, [sp, #-4]!)
800000b8:	e24dd014 	sub	sp, sp, #20
800000bc:	e30139d4 	movw	r3, #6612	; 0x19d4
800000c0:	e28d1004 	add	r1, sp, #4
800000c4:	e3483000 	movt	r3, #32768	; 0x8000
800000c8:	e12fff33 	blx	r3
800000cc:	e28dd014 	add	sp, sp, #20
800000d0:	e8bd8000 	pop	{pc}

800000d4 <main>:
800000d4:	e92d4010 	push	{r4, lr}
800000d8:	e24dd008 	sub	sp, sp, #8
800000dc:	e3a04000 	mov	r4, #0
800000e0:	e3a02019 	mov	r2, #25
800000e4:	e3a03803 	mov	r3, #196608	; 0x30000
800000e8:	e3a00003 	mov	r0, #3
800000ec:	e3011d24 	movw	r1, #7460	; 0x1d24
800000f0:	e88d0011 	stm	sp, {r0, r4}
800000f4:	e3481000 	movt	r1, #32768	; 0x8000
800000f8:	e30000b4 	movw	r0, #180	; 0xb4
800000fc:	e300ca84 	movw	ip, #2692	; 0xa84
80000100:	e3480000 	movt	r0, #32768	; 0x8000
80000104:	e348c000 	movt	ip, #32768	; 0x8000
80000108:	e12fff3c 	blx	ip
8000010c:	e3003d28 	movw	r3, #3368	; 0xd28
80000110:	e3483000 	movt	r3, #32768	; 0x8000
80000114:	e12fff33 	blx	r3
80000118:	e1a00004 	mov	r0, r4
8000011c:	e28dd008 	add	sp, sp, #8
80000120:	e8bd8010 	pop	{r4, pc}

80000124 <start_boot>:
80000124:	e92d4008 	push	{r3, lr}
80000128:	e3a00b3f 	mov	r0, #64512	; 0xfc00
8000012c:	e59f3044 	ldr	r3, [pc, #68]	; 80000178 <start_boot+0x54>
80000130:	e3440030 	movt	r0, #16432	; 0x4030
80000134:	e12fff33 	blx	r3
80000138:	e59f003c 	ldr	r0, [pc, #60]	; 8000017c <start_boot+0x58>
8000013c:	e30f3bfc 	movw	r3, #64508	; 0xfbfc
80000140:	e30f1c34 	movw	r1, #64564	; 0xfc34
80000144:	e3443030 	movt	r3, #16432	; 0x4030
80000148:	e3441030 	movt	r1, #16432	; 0x4030
8000014c:	e080c003 	add	ip, r0, r3
80000150:	e3002404 	movw	r2, #1028	; 0x404
80000154:	e34b2fcf 	movt	r2, #49103	; 0xbfcf
80000158:	e08c2002 	add	r2, ip, r2
8000015c:	e5922000 	ldr	r2, [r2]
80000160:	e5a32004 	str	r2, [r3, #4]!
80000164:	e1530001 	cmp	r3, r1
80000168:	1afffff7 	bne	8000014c <start_boot+0x28>
8000016c:	e59f300c 	ldr	r3, [pc, #12]	; 80000180 <start_boot+0x5c>
80000170:	e12fff33 	blx	r3
80000174:	eafffffe 	b	80000174 <start_boot+0x50>
80000178:	8000054c 	.word	0x8000054c
8000017c:	80001d28 	.word	0x80001d28
80000180:	800000d4 	.word	0x800000d4

80000184 <CP15ICacheDisable>:
80000184:	e92d4000 	push	{lr}
80000188:	ee110f10 	mrc	15, 0, r0, cr1, cr0, {0}
8000018c:	e3c00a01 	bic	r0, r0, #4096	; 0x1000
80000190:	ee010f10 	mcr	15, 0, r0, cr1, cr0, {0}
80000194:	eb00007f 	bl	80000398 <CP15ICacheFlush>
80000198:	e8bd4000 	pop	{lr}
8000019c:	e12fff1e 	bx	lr

800001a0 <CP15DCacheDisable>:
800001a0:	e92d4ff0 	push	{r4, r5, r6, r7, r8, r9, sl, fp, lr}
800001a4:	ee110f10 	mrc	15, 0, r0, cr1, cr0, {0}
800001a8:	e3c00004 	bic	r0, r0, #4
800001ac:	ee010f10 	mcr	15, 0, r0, cr1, cr0, {0}
800001b0:	eb000053 	bl	80000304 <CP15DCacheCleanFlush>
800001b4:	e8bd4ff0 	pop	{r4, r5, r6, r7, r8, r9, sl, fp, lr}
800001b8:	e12fff1e 	bx	lr

800001bc <CP15ICacheEnable>:
800001bc:	ee110f10 	mrc	15, 0, r0, cr1, cr0, {0}
800001c0:	e3800a01 	orr	r0, r0, #4096	; 0x1000
800001c4:	ee010f10 	mcr	15, 0, r0, cr1, cr0, {0}
800001c8:	e12fff1e 	bx	lr

800001cc <CP15DCacheEnable>:
800001cc:	ee110f10 	mrc	15, 0, r0, cr1, cr0, {0}
800001d0:	e3800004 	orr	r0, r0, #4
800001d4:	ee010f10 	mcr	15, 0, r0, cr1, cr0, {0}
800001d8:	e12fff1e 	bx	lr

800001dc <CP15DCacheFlush>:
800001dc:	e92d0ff0 	push	{r4, r5, r6, r7, r8, r9, sl, fp}
800001e0:	f57ff05f 	dmb	sy
800001e4:	ee300f30 	mrc	15, 1, r0, cr0, cr0, {1}
800001e8:	e2103407 	ands	r3, r0, #117440512	; 0x7000000
800001ec:	e1a03ba3 	lsr	r3, r3, #23
800001f0:	0a00001a 	beq	80000260 <ffinished>
800001f4:	e3a0a000 	mov	sl, #0

800001f8 <floop1>:
800001f8:	e08a20aa 	add	r2, sl, sl, lsr #1
800001fc:	e1a01230 	lsr	r1, r0, r2
80000200:	e2011007 	and	r1, r1, #7
80000204:	e3510002 	cmp	r1, #2
80000208:	ba000011 	blt	80000254 <fskip>
8000020c:	ee40af10 	mcr	15, 2, sl, cr0, cr0, {0}
80000210:	f57ff06f 	isb	sy
80000214:	ee301f10 	mrc	15, 1, r1, cr0, cr0, {0}
80000218:	e2012007 	and	r2, r1, #7
8000021c:	e2822004 	add	r2, r2, #4
80000220:	e59f43dc 	ldr	r4, [pc, #988]	; 80000604 <_FLD_MAX_WAY>
80000224:	e01441a1 	ands	r4, r4, r1, lsr #3
80000228:	e16f5f14 	clz	r5, r4
8000022c:	e59f73d4 	ldr	r7, [pc, #980]	; 80000608 <_FLD_MAX_IDX>
80000230:	e01776a1 	ands	r7, r7, r1, lsr #13

80000234 <floop2>:
80000234:	e1a09004 	mov	r9, r4

80000238 <floop3>:
80000238:	e18ab519 	orr	fp, sl, r9, lsl r5
8000023c:	e18bb217 	orr	fp, fp, r7, lsl r2
80000240:	ee07bf56 	mcr	15, 0, fp, cr7, cr6, {2}
80000244:	e2599001 	subs	r9, r9, #1
80000248:	aafffffa 	bge	80000238 <floop3>
8000024c:	e2577001 	subs	r7, r7, #1
80000250:	aafffff7 	bge	80000234 <floop2>

80000254 <fskip>:
80000254:	e28aa002 	add	sl, sl, #2
80000258:	e153000a 	cmp	r3, sl
8000025c:	caffffe5 	bgt	800001f8 <floop1>

80000260 <ffinished>:
80000260:	f57ff04f 	dsb	sy
80000264:	f57ff06f 	isb	sy
80000268:	e8bd0ff0 	pop	{r4, r5, r6, r7, r8, r9, sl, fp}
8000026c:	e12fff1e 	bx	lr

80000270 <CP15DCacheClean>:
80000270:	e92d0ff0 	push	{r4, r5, r6, r7, r8, r9, sl, fp}
80000274:	f57ff05f 	dmb	sy
80000278:	ee300f30 	mrc	15, 1, r0, cr0, cr0, {1}
8000027c:	e2103407 	ands	r3, r0, #117440512	; 0x7000000
80000280:	e1a03ba3 	lsr	r3, r3, #23
80000284:	0a00001a 	beq	800002f4 <cfinished>
80000288:	e3a0a000 	mov	sl, #0

8000028c <cloop1>:
8000028c:	e08a20aa 	add	r2, sl, sl, lsr #1
80000290:	e1a01230 	lsr	r1, r0, r2
80000294:	e2011007 	and	r1, r1, #7
80000298:	e3510002 	cmp	r1, #2
8000029c:	ba000011 	blt	800002e8 <cskip>
800002a0:	ee40af10 	mcr	15, 2, sl, cr0, cr0, {0}
800002a4:	f57ff06f 	isb	sy
800002a8:	ee301f10 	mrc	15, 1, r1, cr0, cr0, {0}
800002ac:	e2012007 	and	r2, r1, #7
800002b0:	e2822004 	add	r2, r2, #4
800002b4:	e59f4348 	ldr	r4, [pc, #840]	; 80000604 <_FLD_MAX_WAY>
800002b8:	e01441a1 	ands	r4, r4, r1, lsr #3
800002bc:	e16f5f14 	clz	r5, r4
800002c0:	e59f7340 	ldr	r7, [pc, #832]	; 80000608 <_FLD_MAX_IDX>
800002c4:	e01776a1 	ands	r7, r7, r1, lsr #13

800002c8 <cloop2>:
800002c8:	e1a09004 	mov	r9, r4

800002cc <cloop3>:
800002cc:	e18ab519 	orr	fp, sl, r9, lsl r5
800002d0:	e18bb217 	orr	fp, fp, r7, lsl r2
800002d4:	ee07bf5a 	mcr	15, 0, fp, cr7, cr10, {2}
800002d8:	e2599001 	subs	r9, r9, #1
800002dc:	aafffffa 	bge	800002cc <cloop3>
800002e0:	e2577001 	subs	r7, r7, #1
800002e4:	aafffff7 	bge	800002c8 <cloop2>

800002e8 <cskip>:
800002e8:	e28aa002 	add	sl, sl, #2
800002ec:	e153000a 	cmp	r3, sl
800002f0:	caffffe5 	bgt	8000028c <cloop1>

800002f4 <cfinished>:
800002f4:	f57ff04f 	dsb	sy
800002f8:	f57ff06f 	isb	sy
800002fc:	e8bd0ff0 	pop	{r4, r5, r6, r7, r8, r9, sl, fp}
80000300:	e12fff1e 	bx	lr

80000304 <CP15DCacheCleanFlush>:
80000304:	e92d0ff0 	push	{r4, r5, r6, r7, r8, r9, sl, fp}
80000308:	f57ff05f 	dmb	sy
8000030c:	ee300f30 	mrc	15, 1, r0, cr0, cr0, {1}
80000310:	e2103407 	ands	r3, r0, #117440512	; 0x7000000
80000314:	e1a03ba3 	lsr	r3, r3, #23
80000318:	0a00001a 	beq	80000388 <finished>
8000031c:	e3a0a000 	mov	sl, #0

80000320 <loop1>:
80000320:	e08a20aa 	add	r2, sl, sl, lsr #1
80000324:	e1a01230 	lsr	r1, r0, r2
80000328:	e2011007 	and	r1, r1, #7
8000032c:	e3510002 	cmp	r1, #2
80000330:	ba000011 	blt	8000037c <skip>
80000334:	ee40af10 	mcr	15, 2, sl, cr0, cr0, {0}
80000338:	f57ff06f 	isb	sy
8000033c:	ee301f10 	mrc	15, 1, r1, cr0, cr0, {0}
80000340:	e2012007 	and	r2, r1, #7
80000344:	e2822004 	add	r2, r2, #4
80000348:	e59f42b4 	ldr	r4, [pc, #692]	; 80000604 <_FLD_MAX_WAY>
8000034c:	e01441a1 	ands	r4, r4, r1, lsr #3
80000350:	e16f5f14 	clz	r5, r4
80000354:	e59f72ac 	ldr	r7, [pc, #684]	; 80000608 <_FLD_MAX_IDX>
80000358:	e01776a1 	ands	r7, r7, r1, lsr #13

8000035c <loop2>:
8000035c:	e1a09004 	mov	r9, r4

80000360 <loop3>:
80000360:	e18ab519 	orr	fp, sl, r9, lsl r5
80000364:	e18bb217 	orr	fp, fp, r7, lsl r2
80000368:	ee07bf5e 	mcr	15, 0, fp, cr7, cr14, {2}
8000036c:	e2599001 	subs	r9, r9, #1
80000370:	aafffffa 	bge	80000360 <loop3>
80000374:	e2577001 	subs	r7, r7, #1
80000378:	aafffff7 	bge	8000035c <loop2>

8000037c <skip>:
8000037c:	e28aa002 	add	sl, sl, #2
80000380:	e153000a 	cmp	r3, sl
80000384:	caffffe5 	bgt	80000320 <loop1>

80000388 <finished>:
80000388:	f57ff04f 	dsb	sy
8000038c:	f57ff06f 	isb	sy
80000390:	e8bd0ff0 	pop	{r4, r5, r6, r7, r8, r9, sl, fp}
80000394:	e12fff1e 	bx	lr

80000398 <CP15ICacheFlush>:
80000398:	e3a00000 	mov	r0, #0
8000039c:	ee070f15 	mcr	15, 0, r0, cr7, cr5, {0}
800003a0:	f57ff04f 	dsb	sy
800003a4:	e12fff1e 	bx	lr

800003a8 <CP15DCacheCleanBuff>:
800003a8:	e92d4000 	push	{lr}
800003ac:	e080e001 	add	lr, r0, r1
800003b0:	f57ff05f 	dmb	sy
800003b4:	ee102f30 	mrc	15, 0, r2, cr0, cr0, {1}
800003b8:	e7e32852 	ubfx	r2, r2, #16, #4
800003bc:	e3a03002 	mov	r3, #2
800003c0:	e0833002 	add	r3, r3, r2
800003c4:	e3a02001 	mov	r2, #1
800003c8:	e1a02312 	lsl	r2, r2, r3
800003cc:	e2423001 	sub	r3, r2, #1
800003d0:	e1c00003 	bic	r0, r0, r3
800003d4:	e113000e 	tst	r3, lr
800003d8:	e1cee003 	bic	lr, lr, r3
800003dc:	1e07ef3a 	mcrne	15, 0, lr, cr7, cr10, {1}

800003e0 <cleanloop>:
800003e0:	ee070f3a 	mcr	15, 0, r0, cr7, cr10, {1}
800003e4:	e0900002 	adds	r0, r0, r2
800003e8:	e150000e 	cmp	r0, lr
800003ec:	bafffffb 	blt	800003e0 <cleanloop>
800003f0:	e8bd4000 	pop	{lr}
800003f4:	f57ff04f 	dsb	sy
800003f8:	e12fff1e 	bx	lr

800003fc <CP15DCacheCleanFlushBuff>:
800003fc:	e92d4000 	push	{lr}
80000400:	e080e001 	add	lr, r0, r1
80000404:	f57ff05f 	dmb	sy
80000408:	ee102f30 	mrc	15, 0, r2, cr0, cr0, {1}
8000040c:	e7e32852 	ubfx	r2, r2, #16, #4
80000410:	e3a03002 	mov	r3, #2
80000414:	e0833002 	add	r3, r3, r2
80000418:	e3a02001 	mov	r2, #1
8000041c:	e1a02312 	lsl	r2, r2, r3
80000420:	e2423001 	sub	r3, r2, #1
80000424:	e1c00003 	bic	r0, r0, r3
80000428:	e113000e 	tst	r3, lr
8000042c:	e1cee003 	bic	lr, lr, r3
80000430:	1e07ef3e 	mcrne	15, 0, lr, cr7, cr14, {1}

80000434 <cleanflushloop>:
80000434:	ee070f3e 	mcr	15, 0, r0, cr7, cr14, {1}
80000438:	e0900002 	adds	r0, r0, r2
8000043c:	e150000e 	cmp	r0, lr
80000440:	bafffffb 	blt	80000434 <cleanflushloop>
80000444:	e8bd4000 	pop	{lr}
80000448:	f57ff04f 	dsb	sy
8000044c:	e12fff1e 	bx	lr

80000450 <CP15DCacheFlushBuff>:
80000450:	e92d4000 	push	{lr}
80000454:	e080e001 	add	lr, r0, r1
80000458:	f57ff05f 	dmb	sy
8000045c:	ee102f30 	mrc	15, 0, r2, cr0, cr0, {1}
80000460:	e7e32852 	ubfx	r2, r2, #16, #4
80000464:	e3a03002 	mov	r3, #2
80000468:	e0833002 	add	r3, r3, r2
8000046c:	e3a02001 	mov	r2, #1
80000470:	e1a02312 	lsl	r2, r2, r3
80000474:	e2423001 	sub	r3, r2, #1
80000478:	e1130000 	tst	r3, r0
8000047c:	e1c00003 	bic	r0, r0, r3
80000480:	1e070f3e 	mcrne	15, 0, r0, cr7, cr14, {1}
80000484:	10800002 	addne	r0, r0, r2
80000488:	e113000e 	tst	r3, lr
8000048c:	e1cee003 	bic	lr, lr, r3
80000490:	1e07ef3e 	mcrne	15, 0, lr, cr7, cr14, {1}
80000494:	ea000001 	b	800004a0 <dflushcmp>

80000498 <dflushloop>:
80000498:	ee070f36 	mcr	15, 0, r0, cr7, cr6, {1}
8000049c:	e0900002 	adds	r0, r0, r2

800004a0 <dflushcmp>:
800004a0:	e150000e 	cmp	r0, lr
800004a4:	bafffffb 	blt	80000498 <dflushloop>
800004a8:	e8bd4000 	pop	{lr}
800004ac:	f57ff04f 	dsb	sy
800004b0:	e12fff1e 	bx	lr

800004b4 <CP15ICacheFlushBuff>:
800004b4:	e92d4000 	push	{lr}
800004b8:	e080e001 	add	lr, r0, r1
800004bc:	f57ff05f 	dmb	sy
800004c0:	ee102f30 	mrc	15, 0, r2, cr0, cr0, {1}
800004c4:	e7e32052 	ubfx	r2, r2, #0, #4
800004c8:	e3a03002 	mov	r3, #2
800004cc:	e0833002 	add	r3, r3, r2
800004d0:	e3a02001 	mov	r2, #1
800004d4:	e1a02312 	lsl	r2, r2, r3
800004d8:	e2423001 	sub	r3, r2, #1
800004dc:	e1c00003 	bic	r0, r0, r3
800004e0:	e113000e 	tst	r3, lr
800004e4:	e1cee003 	bic	lr, lr, r3
800004e8:	1e07ef35 	mcrne	15, 0, lr, cr7, cr5, {1}

800004ec <iflushloop>:
800004ec:	ee070f35 	mcr	15, 0, r0, cr7, cr5, {1}
800004f0:	e0900002 	adds	r0, r0, r2
800004f4:	e150000e 	cmp	r0, lr
800004f8:	bafffffb 	blt	800004ec <iflushloop>
800004fc:	e8bd4000 	pop	{lr}
80000500:	f57ff04f 	dsb	sy
80000504:	e12fff1e 	bx	lr

80000508 <CP15Ttb0Set>:
80000508:	ee020f10 	mcr	15, 0, r0, cr2, cr0, {0}
8000050c:	f57ff05f 	dmb	sy
80000510:	e12fff1e 	bx	lr

80000514 <CP15TlbInvalidate>:
80000514:	ee080f17 	mcr	15, 0, r0, cr8, cr7, {0}
80000518:	f57ff04f 	dsb	sy
8000051c:	e12fff1e 	bx	lr

80000520 <CP15MMUDisable>:
80000520:	ee080f17 	mcr	15, 0, r0, cr8, cr7, {0}
80000524:	ee110f10 	mrc	15, 0, r0, cr1, cr0, {0}
80000528:	e3c00001 	bic	r0, r0, #1
8000052c:	ee010f10 	mcr	15, 0, r0, cr1, cr0, {0}
80000530:	f57ff04f 	dsb	sy
80000534:	e12fff1e 	bx	lr

80000538 <CP15MMUEnable>:
80000538:	ee110f10 	mrc	15, 0, r0, cr1, cr0, {0}
8000053c:	e3800001 	orr	r0, r0, #1
80000540:	ee010f10 	mcr	15, 0, r0, cr1, cr0, {0}
80000544:	f57ff04f 	dsb	sy
80000548:	e12fff1e 	bx	lr

8000054c <CP15VectorBaseAddrSet>:
8000054c:	ee0c0f10 	mcr	15, 0, r0, cr12, cr0, {0}
80000550:	f57ff04f 	dsb	sy
80000554:	e12fff1e 	bx	lr

80000558 <CP15BranchPredictorInvalidate>:
80000558:	ee070fd5 	mcr	15, 0, r0, cr7, cr5, {6}
8000055c:	f57ff06f 	isb	sy
80000560:	e12fff1e 	bx	lr

80000564 <CP15BranchPredictionEnable>:
80000564:	ee110f10 	mrc	15, 0, r0, cr1, cr0, {0}
80000568:	e3800b02 	orr	r0, r0, #2048	; 0x800
8000056c:	ee010f10 	mcr	15, 0, r0, cr1, cr0, {0}
80000570:	e12fff1e 	bx	lr

80000574 <CP15BranchPredictionDisable>:
80000574:	ee110f10 	mrc	15, 0, r0, cr1, cr0, {0}
80000578:	e3c00b02 	bic	r0, r0, #2048	; 0x800
8000057c:	ee010f10 	mcr	15, 0, r0, cr1, cr0, {0}
80000580:	e12fff1e 	bx	lr

80000584 <CP15DomainAccessClientSet>:
80000584:	e59f0074 	ldr	r0, [pc, #116]	; 80000600 <_CLIENTD>
80000588:	ee030f10 	mcr	15, 0, r0, cr3, cr0, {0}
8000058c:	f57ff04f 	dsb	sy
80000590:	e12fff1e 	bx	lr

80000594 <CP15ControlFeatureDisable>:
80000594:	ee111f10 	mrc	15, 0, r1, cr1, cr0, {0}
80000598:	e1c10000 	bic	r0, r1, r0
8000059c:	ee010f10 	mcr	15, 0, r0, cr1, cr0, {0}
800005a0:	f57ff04f 	dsb	sy
800005a4:	e12fff1e 	bx	lr

800005a8 <CP15ControlFeatureEnable>:
800005a8:	ee111f10 	mrc	15, 0, r1, cr1, cr0, {0}
800005ac:	e1810000 	orr	r0, r1, r0
800005b0:	ee010f10 	mcr	15, 0, r0, cr1, cr0, {0}
800005b4:	f57ff04f 	dsb	sy
800005b8:	e12fff1e 	bx	lr

800005bc <CP15TtbCtlTtb0Config>:
800005bc:	e3a00000 	mov	r0, #0
800005c0:	ee020f50 	mcr	15, 0, r0, cr2, cr0, {2}
800005c4:	f57ff04f 	dsb	sy
800005c8:	e12fff1e 	bx	lr

800005cc <CP15AuxControlFeatureEnable>:
800005cc:	ee111f30 	mrc	15, 0, r1, cr1, cr0, {1}
800005d0:	e1800001 	orr	r0, r0, r1
800005d4:	ee010f30 	mcr	15, 0, r0, cr1, cr0, {1}
800005d8:	f57ff04f 	dsb	sy
800005dc:	e12fff1e 	bx	lr

800005e0 <CP15AuxControlFeatureDisable>:
800005e0:	ee111f30 	mrc	15, 0, r1, cr1, cr0, {1}
800005e4:	e1c10000 	bic	r0, r1, r0
800005e8:	ee010f30 	mcr	15, 0, r0, cr1, cr0, {1}
800005ec:	f57ff04f 	dsb	sy
800005f0:	e12fff1e 	bx	lr

800005f4 <CP15MainIdPrimPartNumGet>:
800005f4:	ee100f10 	mrc	15, 0, r0, cr0, cr0, {0}
800005f8:	e7eb0250 	ubfx	r0, r0, #4, #12
800005fc:	e12fff1e 	bx	lr

80000600 <_CLIENTD>:
80000600:	55555555 	.word	0x55555555

80000604 <_FLD_MAX_WAY>:
80000604:	000003ff 	.word	0x000003ff

80000608 <_FLD_MAX_IDX>:
80000608:	000007ff 	.word	0x000007ff

8000060c <SVC_Handler2>:
8000060c:	e92d4003 	push	{r0, r1, lr}
80000610:	e24dd004 	sub	sp, sp, #4
80000614:	e51e0004 	ldr	r0, [lr, #-4]
80000618:	e3c004ff 	bic	r0, r0, #-16777216	; 0xff000000
8000061c:	e3500807 	cmp	r0, #458752	; 0x70000
80000620:	014f1000 	mrseq	r1, SPSR
80000624:	03811012 	orreq	r1, r1, #18
80000628:	0169f001 	msreq	SPSR_fc, r1
8000062c:	e28dd004 	add	sp, sp, #4
80000630:	e8fd8003 	ldm	sp!, {r0, r1, pc}^

80000634 <IRQHandler2>:
80000634:	e24ee004 	sub	lr, lr, #4
80000638:	e92d500f 	push	{r0, r1, r2, r3, ip, lr}
8000063c:	e14fc000 	mrs	ip, SPSR
80000640:	eef11a10 	vmrs	r1, fpscr
80000644:	e92d1002 	push	{r1, ip}
80000648:	ed2d0b10 	vpush	{d0-d7}
8000064c:	e59f0094 	ldr	r0, [pc, #148]	; 800006e8 <AbortHandler+0x4>
80000650:	e5901000 	ldr	r1, [r0]
80000654:	e92d0002 	push	{r1}
80000658:	e59f208c 	ldr	r2, [pc, #140]	; 800006ec <AbortHandler+0x8>
8000065c:	e5923000 	ldr	r3, [r2]
80000660:	e5803000 	str	r3, [r0]
80000664:	e59f1084 	ldr	r1, [pc, #132]	; 800006f0 <AbortHandler+0xc>
80000668:	e5912000 	ldr	r2, [r1]
8000066c:	e202207f 	and	r2, r2, #127	; 0x7f
80000670:	e3a00001 	mov	r0, #1
80000674:	e59f1078 	ldr	r1, [pc, #120]	; 800006f4 <AbortHandler+0x10>
80000678:	e3530000 	cmp	r3, #0
8000067c:	15810000 	strne	r0, [r1]
80000680:	f57ff04f 	dsb	sy
80000684:	e10fe000 	mrs	lr, CPSR
80000688:	e38ee01f 	orr	lr, lr, #31
8000068c:	13cee080 	bicne	lr, lr, #128	; 0x80
80000690:	e129f00e 	msr	CPSR_fc, lr
80000694:	e92d4000 	push	{lr}
80000698:	e59f0058 	ldr	r0, [pc, #88]	; 800006f8 <AbortHandler+0x14>
8000069c:	e28fe000 	add	lr, pc, #0
800006a0:	e790f102 	ldr	pc, [r0, r2, lsl #2]
800006a4:	e8bd4000 	pop	{lr}
800006a8:	f10e0092 	cpsid	i,#18
800006ac:	e59f0034 	ldr	r0, [pc, #52]	; 800006e8 <AbortHandler+0x4>
800006b0:	e5901000 	ldr	r1, [r0]
800006b4:	e3510000 	cmp	r1, #0
800006b8:	03a02001 	moveq	r2, #1
800006bc:	059f1030 	ldreq	r1, [pc, #48]	; 800006f4 <AbortHandler+0x10>
800006c0:	05812000 	streq	r2, [r1]
800006c4:	e8bd0002 	pop	{r1}
800006c8:	e5801000 	str	r1, [r0]
800006cc:	ecbd0b10 	vpop	{d0-d7}
800006d0:	e8bd1002 	pop	{r1, ip}
800006d4:	e169f00c 	msr	SPSR_fc, ip
800006d8:	eee11a10 	vmsr	fpscr, r1
800006dc:	e8fd900f 	ldm	sp!, {r0, r1, r2, r3, ip, pc}^

800006e0 <FIQHandler>:
800006e0:	e25ef004 	subs	pc, lr, #4

800006e4 <AbortHandler>:
800006e4:	eafffffe 	b	800006e4 <AbortHandler>
800006e8:	48200068 	.word	0x48200068
800006ec:	48200060 	.word	0x48200060
800006f0:	48200040 	.word	0x48200040
800006f4:	48200048 	.word	0x48200048
800006f8:	80007e78 	.word	0x80007e78

800006fc <IntDefaultHandler>:
800006fc:	e12fff1e 	bx	lr

80000700 <IntRegister>:
80000700:	e3073e78 	movw	r3, #32376	; 0x7e78
80000704:	e3483000 	movt	r3, #32768	; 0x8000
80000708:	e7831100 	str	r1, [r3, r0, lsl #2]
8000070c:	e12fff1e 	bx	lr

80000710 <IntAINTCInit>:
80000710:	e3a03000 	mov	r3, #0
80000714:	e3443820 	movt	r3, #18464	; 0x4820
80000718:	e3a01002 	mov	r1, #2
8000071c:	e1a02003 	mov	r2, r3
80000720:	e5831010 	str	r1, [r3, #16]
80000724:	e5923014 	ldr	r3, [r2, #20]
80000728:	e3a00000 	mov	r0, #0
8000072c:	e3440820 	movt	r0, #18464	; 0x4820
80000730:	e3130001 	tst	r3, #1
80000734:	0afffffa 	beq	80000724 <IntAINTCInit+0x14>
80000738:	e59f301c 	ldr	r3, [pc, #28]	; 8000075c <IntAINTCInit+0x4c>
8000073c:	e3a0c0ff 	mov	ip, #255	; 0xff
80000740:	e59f1018 	ldr	r1, [pc, #24]	; 80000760 <IntAINTCInit+0x50>
80000744:	e2832c02 	add	r2, r3, #512	; 0x200
80000748:	e580c068 	str	ip, [r0, #104]	; 0x68
8000074c:	e5a31004 	str	r1, [r3, #4]!
80000750:	e1530002 	cmp	r3, r2
80000754:	1afffffc 	bne	8000074c <IntAINTCInit+0x3c>
80000758:	e12fff1e 	bx	lr
8000075c:	80007e74 	.word	0x80007e74
80000760:	800006fc 	.word	0x800006fc

80000764 <IntPrioritySet>:
80000764:	e3a03040 	mov	r3, #64	; 0x40
80000768:	e3413208 	movt	r3, #4616	; 0x1208
8000076c:	e0803003 	add	r3, r0, r3
80000770:	e1a01101 	lsl	r1, r1, #2
80000774:	e2011f7f 	and	r1, r1, #508	; 0x1fc
80000778:	e1a03103 	lsl	r3, r3, #2
8000077c:	e1812002 	orr	r2, r1, r2
80000780:	e5832000 	str	r2, [r3]
80000784:	e12fff1e 	bx	lr

80000788 <IntSystemEnable>:
80000788:	f57ff04f 	dsb	sy
8000078c:	e3a03088 	mov	r3, #136	; 0x88
80000790:	e1a022a0 	lsr	r2, r0, #5
80000794:	e3443820 	movt	r3, #18464	; 0x4820
80000798:	e200001f 	and	r0, r0, #31
8000079c:	e3a01001 	mov	r1, #1
800007a0:	e1a00011 	lsl	r0, r1, r0
800007a4:	e7830282 	str	r0, [r3, r2, lsl #5]
800007a8:	e12fff1e 	bx	lr

800007ac <IntActiveIrqNumGet>:
800007ac:	e3a03000 	mov	r3, #0
800007b0:	e3443820 	movt	r3, #18464	; 0x4820
800007b4:	e5930040 	ldr	r0, [r3, #64]	; 0x40
800007b8:	e200007f 	and	r0, r0, #127	; 0x7f
800007bc:	e12fff1e 	bx	lr

800007c0 <IntMasterIRQEnable>:
800007c0:	e92d4008 	push	{r3, lr}
800007c4:	e30037d4 	movw	r3, #2004	; 0x7d4
800007c8:	e3483000 	movt	r3, #32768	; 0x8000
800007cc:	e12fff33 	blx	r3
800007d0:	e8bd8008 	pop	{r3, pc}

800007d4 <CPUirqe>:
800007d4:	f57ff04f 	dsb	sy
800007d8:	e10f0000 	mrs	r0, CPSR
800007dc:	e3c00080 	bic	r0, r0, #128	; 0x80
800007e0:	e129f000 	msr	CPSR_fc, r0
800007e4:	e12fff1e 	bx	lr

800007e8 <SVC_Handler>:
800007e8:	e92d0001 	push	{r0}
800007ec:	e51e0004 	ldr	r0, [lr, #-4]
800007f0:	e3c004ff 	bic	r0, r0, #-16777216	; 0xff000000
800007f4:	e3500015 	cmp	r0, #21
800007f8:	e8bd0001 	pop	{r0}
800007fc:	01a0f00e 	moveq	pc, lr
80000800:	e28ee004 	add	lr, lr, #4
80000804:	e92d0001 	push	{r0}
80000808:	e94d2000 	stmdb	sp, {sp}^
8000080c:	e320f000 	nop	{0}
80000810:	e24dd004 	sub	sp, sp, #4
80000814:	e8bd0001 	pop	{r0}
80000818:	e9204000 	stmdb	r0!, {lr}
8000081c:	e1a0e000 	mov	lr, r0
80000820:	e8bd0001 	pop	{r0}
80000824:	e94e7fff 	stmdb	lr, {r0, r1, r2, r3, r4, r5, r6, r7, r8, r9, sl, fp, ip, sp, lr}^
80000828:	e320f000 	nop	{0}
8000082c:	e24ee03c 	sub	lr, lr, #60	; 0x3c
80000830:	ed2e0b10 	vstmdb	lr!, {d0-d7}
80000834:	e14f1000 	mrs	r1, SPSR
80000838:	eef10a10 	vmrs	r0, fpscr
8000083c:	e92e0003 	stmdb	lr!, {r0, r1}
80000840:	e59f005c 	ldr	r0, [pc, #92]	; 800008a4 <SVC_Handler+0xbc>
80000844:	e5900000 	ldr	r0, [r0]
80000848:	e580e000 	str	lr, [r0]
8000084c:	e3015d68 	movw	r5, #7528	; 0x1d68
80000850:	e3014e10 	movw	r4, #7696	; 0x1e10
80000854:	e3485000 	movt	r5, #32768	; 0x8000
80000858:	e3484000 	movt	r4, #32768	; 0x8000
8000085c:	e301321c 	movw	r3, #4636	; 0x121c
80000860:	e3483000 	movt	r3, #32768	; 0x8000
80000864:	e5952000 	ldr	r2, [r5]
80000868:	e5942000 	ldr	r2, [r4]
8000086c:	e12fff33 	blx	r3
80000870:	e59f002c 	ldr	r0, [pc, #44]	; 800008a4 <SVC_Handler+0xbc>
80000874:	e5900000 	ldr	r0, [r0]
80000878:	e590e000 	ldr	lr, [r0]
8000087c:	e8be0003 	ldm	lr!, {r0, r1}
80000880:	e169f001 	msr	SPSR_fc, r1
80000884:	eee10a10 	vmsr	fpscr, r0
80000888:	ecbe0b10 	vldmia	lr!, {d0-d7}
8000088c:	e8de7fff 	ldm	lr, {r0, r1, r2, r3, r4, r5, r6, r7, r8, r9, sl, fp, ip, sp, lr}^
80000890:	e320f000 	nop	{0}
80000894:	e59ee03c 	ldr	lr, [lr, #60]	; 0x3c
80000898:	e25ef004 	subs	pc, lr, #4
8000089c:	e5953000 	ldr	r3, [r5]
800008a0:	e5943000 	ldr	r3, [r4]
800008a4:	80001e10 	.word	0x80001e10

800008a8 <IRQHandler>:
800008a8:	e92d0001 	push	{r0}
800008ac:	e94d2000 	stmdb	sp, {sp}^
800008b0:	e320f000 	nop	{0}
800008b4:	e24dd004 	sub	sp, sp, #4
800008b8:	e8bd0001 	pop	{r0}
800008bc:	e9204000 	stmdb	r0!, {lr}
800008c0:	e1a0e000 	mov	lr, r0
800008c4:	e8bd0001 	pop	{r0}
800008c8:	e94e7fff 	stmdb	lr, {r0, r1, r2, r3, r4, r5, r6, r7, r8, r9, sl, fp, ip, sp, lr}^
800008cc:	e320f000 	nop	{0}
800008d0:	e24ee03c 	sub	lr, lr, #60	; 0x3c
800008d4:	ed2e0b10 	vstmdb	lr!, {d0-d7}
800008d8:	e14f1000 	mrs	r1, SPSR
800008dc:	eef10a10 	vmrs	r0, fpscr
800008e0:	e92e0003 	stmdb	lr!, {r0, r1}
800008e4:	e59f007c 	ldr	r0, [pc, #124]	; 80000968 <IRQHandler+0xc0>
800008e8:	e5900000 	ldr	r0, [r0]
800008ec:	e580e000 	str	lr, [r0]
800008f0:	e3015d68 	movw	r5, #7528	; 0x1d68
800008f4:	e3014e10 	movw	r4, #7696	; 0x1e10
800008f8:	e3485000 	movt	r5, #32768	; 0x8000
800008fc:	e3484000 	movt	r4, #32768	; 0x8000
80000900:	e30037ac 	movw	r3, #1964	; 0x7ac
80000904:	e3483000 	movt	r3, #32768	; 0x8000
80000908:	e5952000 	ldr	r2, [r5]
8000090c:	e5942000 	ldr	r2, [r4]
80000910:	e12fff33 	blx	r3
80000914:	e3073e78 	movw	r3, #32376	; 0x7e78
80000918:	e3483000 	movt	r3, #32768	; 0x8000
8000091c:	e7933100 	ldr	r3, [r3, r0, lsl #2]
80000920:	e12fff33 	blx	r3
80000924:	e3a03000 	mov	r3, #0
80000928:	e3443820 	movt	r3, #18464	; 0x4820
8000092c:	e3a02001 	mov	r2, #1
80000930:	e5832048 	str	r2, [r3, #72]	; 0x48
80000934:	e59f002c 	ldr	r0, [pc, #44]	; 80000968 <IRQHandler+0xc0>
80000938:	e5900000 	ldr	r0, [r0]
8000093c:	e590e000 	ldr	lr, [r0]
80000940:	e8be0003 	ldm	lr!, {r0, r1}
80000944:	e169f001 	msr	SPSR_fc, r1
80000948:	eee10a10 	vmsr	fpscr, r0
8000094c:	ecbe0b10 	vldmia	lr!, {d0-d7}
80000950:	e8de7fff 	ldm	lr, {r0, r1, r2, r3, r4, r5, r6, r7, r8, r9, sl, fp, ip, sp, lr}^
80000954:	e320f000 	nop	{0}
80000958:	e59ee03c 	ldr	lr, [lr, #60]	; 0x3c
8000095c:	e25ef004 	subs	pc, lr, #4
80000960:	e5953000 	ldr	r3, [r5]
80000964:	e5943000 	ldr	r3, [r4]
80000968:	80001e10 	.word	0x80001e10

8000096c <vTickISR>:
8000096c:	e92d4008 	push	{r3, lr}
80000970:	e3a01002 	mov	r1, #2
80000974:	e59f304c 	ldr	r3, [pc, #76]	; 800009c8 <vTickISR+0x5c>
80000978:	e3a00000 	mov	r0, #0
8000097c:	e3440804 	movt	r0, #18436	; 0x4804
80000980:	e12fff33 	blx	r3
80000984:	e3a01002 	mov	r1, #2
80000988:	e59f303c 	ldr	r3, [pc, #60]	; 800009cc <vTickISR+0x60>
8000098c:	e3a00000 	mov	r0, #0
80000990:	e3440804 	movt	r0, #18436	; 0x4804
80000994:	e12fff33 	blx	r3
80000998:	e3a01002 	mov	r1, #2
8000099c:	e59f302c 	ldr	r3, [pc, #44]	; 800009d0 <vTickISR+0x64>
800009a0:	e3a00000 	mov	r0, #0
800009a4:	e3440804 	movt	r0, #18436	; 0x4804
800009a8:	e12fff33 	blx	r3
800009ac:	e59f3020 	ldr	r3, [pc, #32]	; 800009d4 <vTickISR+0x68>
800009b0:	e12fff33 	blx	r3
800009b4:	e3500000 	cmp	r0, #0
800009b8:	08bd8008 	popeq	{r3, pc}
800009bc:	e59f3014 	ldr	r3, [pc, #20]	; 800009d8 <vTickISR+0x6c>
800009c0:	e12fff33 	blx	r3
800009c4:	e8bd8008 	pop	{r3, pc}
800009c8:	8000179c 	.word	0x8000179c
800009cc:	80001784 	.word	0x80001784
800009d0:	80001790 	.word	0x80001790
800009d4:	80000ddc 	.word	0x80000ddc
800009d8:	8000121c 	.word	0x8000121c

800009dc <vPortEnterCritical>:
800009dc:	e92d0001 	push	{r0}
800009e0:	e10f0000 	mrs	r0, CPSR
800009e4:	e38000c0 	orr	r0, r0, #192	; 0xc0
800009e8:	e129f000 	msr	CPSR_fc, r0
800009ec:	e8bd0001 	pop	{r0}
800009f0:	e3013d68 	movw	r3, #7528	; 0x1d68
800009f4:	e3483000 	movt	r3, #32768	; 0x8000
800009f8:	e5932000 	ldr	r2, [r3]
800009fc:	e2822001 	add	r2, r2, #1
80000a00:	e5832000 	str	r2, [r3]
80000a04:	e12fff1e 	bx	lr

80000a08 <vPortExitCritical>:
80000a08:	e59f3038 	ldr	r3, [pc, #56]	; 80000a48 <vPortExitCritical+0x40>
80000a0c:	e5932000 	ldr	r2, [r3]
80000a10:	e3520000 	cmp	r2, #0
80000a14:	012fff1e 	bxeq	lr
80000a18:	e5932000 	ldr	r2, [r3]
80000a1c:	e2422001 	sub	r2, r2, #1
80000a20:	e5832000 	str	r2, [r3]
80000a24:	e5933000 	ldr	r3, [r3]
80000a28:	e3530000 	cmp	r3, #0
80000a2c:	112fff1e 	bxne	lr
80000a30:	e92d0001 	push	{r0}
80000a34:	e10f0000 	mrs	r0, CPSR
80000a38:	e3c000c0 	bic	r0, r0, #192	; 0xc0
80000a3c:	e129f000 	msr	CPSR_fc, r0
80000a40:	e8bd0001 	pop	{r0}
80000a44:	e12fff1e 	bx	lr
80000a48:	80001d68 	.word	0x80001d68

80000a4c <prvResetNextTaskUnblockTime>:
80000a4c:	e59f3028 	ldr	r3, [pc, #40]	; 80000a7c <prvResetNextTaskUnblockTime+0x30>
80000a50:	e5932000 	ldr	r2, [r3]
80000a54:	e5922000 	ldr	r2, [r2]
80000a58:	e3520000 	cmp	r2, #0
80000a5c:	15933000 	ldrne	r3, [r3]
80000a60:	03e02000 	mvneq	r2, #0
80000a64:	1593300c 	ldrne	r3, [r3, #12]
80000a68:	1593300c 	ldrne	r3, [r3, #12]
80000a6c:	15932004 	ldrne	r2, [r3, #4]
80000a70:	e59f3008 	ldr	r3, [pc, #8]	; 80000a80 <prvResetNextTaskUnblockTime+0x34>
80000a74:	e5832000 	str	r2, [r3]
80000a78:	e12fff1e 	bx	lr
80000a7c:	80001d70 	.word	0x80001d70
80000a80:	80001e14 	.word	0x80001e14

80000a84 <xTaskCreate>:
80000a84:	e92d4ff8 	push	{r3, r4, r5, r6, r7, r8, r9, sl, fp, lr}
80000a88:	e1a08000 	mov	r8, r0
80000a8c:	e59f5240 	ldr	r5, [pc, #576]	; 80000cd4 <xTaskCreate+0x250>
80000a90:	e1a00102 	lsl	r0, r2, #2
80000a94:	e1a0b002 	mov	fp, r2
80000a98:	e1a04001 	mov	r4, r1
80000a9c:	e1a07003 	mov	r7, r3
80000aa0:	e12fff35 	blx	r5
80000aa4:	e250a000 	subs	sl, r0, #0
80000aa8:	0a000063 	beq	80000c3c <xTaskCreate+0x1b8>
80000aac:	e3a0004c 	mov	r0, #76	; 0x4c
80000ab0:	e12fff35 	blx	r5
80000ab4:	e2509000 	subs	r9, r0, #0
80000ab8:	0a00005c 	beq	80000c30 <xTaskCreate+0x1ac>
80000abc:	e24bb001 	sub	fp, fp, #1
80000ac0:	e589a030 	str	sl, [r9, #48]	; 0x30
80000ac4:	e1a0e009 	mov	lr, r9
80000ac8:	e3a0c000 	mov	ip, #0
80000acc:	e08aa10b 	add	sl, sl, fp, lsl #2
80000ad0:	e3caa007 	bic	sl, sl, #7
80000ad4:	e7d4300c 	ldrb	r3, [r4, ip]
80000ad8:	e5ce3034 	strb	r3, [lr, #52]	; 0x34
80000adc:	e28ee001 	add	lr, lr, #1
80000ae0:	e7d4500c 	ldrb	r5, [r4, ip]
80000ae4:	e28cc001 	add	ip, ip, #1
80000ae8:	e3550000 	cmp	r5, #0
80000aec:	0a000001 	beq	80000af8 <xTaskCreate+0x74>
80000af0:	e35c0010 	cmp	ip, #16
80000af4:	1afffff6 	bne	80000ad4 <xTaskCreate+0x50>
80000af8:	e59db028 	ldr	fp, [sp, #40]	; 0x28
80000afc:	e2895004 	add	r5, r9, #4
80000b00:	e3a04000 	mov	r4, #0
80000b04:	e59f61cc 	ldr	r6, [pc, #460]	; 80000cd8 <xTaskCreate+0x254>
80000b08:	e35b0004 	cmp	fp, #4
80000b0c:	23a0b004 	movcs	fp, #4
80000b10:	e1a00005 	mov	r0, r5
80000b14:	e5c94043 	strb	r4, [r9, #67]	; 0x43
80000b18:	e589b02c 	str	fp, [r9, #44]	; 0x2c
80000b1c:	e26bb005 	rsb	fp, fp, #5
80000b20:	e12fff36 	blx	r6
80000b24:	e2890018 	add	r0, r9, #24
80000b28:	e12fff36 	blx	r6
80000b2c:	e5894044 	str	r4, [r9, #68]	; 0x44
80000b30:	e1a02007 	mov	r2, r7
80000b34:	e1a01008 	mov	r1, r8
80000b38:	e5c94048 	strb	r4, [r9, #72]	; 0x48
80000b3c:	e1a0000a 	mov	r0, sl
80000b40:	e59f3194 	ldr	r3, [pc, #404]	; 80000cdc <xTaskCreate+0x258>
80000b44:	e5899010 	str	r9, [r9, #16]
80000b48:	e5899024 	str	r9, [r9, #36]	; 0x24
80000b4c:	e589b018 	str	fp, [r9, #24]
80000b50:	e12fff33 	blx	r3
80000b54:	e59d302c 	ldr	r3, [sp, #44]	; 0x2c
80000b58:	e1530004 	cmp	r3, r4
80000b5c:	e59f417c 	ldr	r4, [pc, #380]	; 80000ce0 <xTaskCreate+0x25c>
80000b60:	e5890000 	str	r0, [r9]
80000b64:	15839000 	strne	r9, [r3]
80000b68:	e59f3174 	ldr	r3, [pc, #372]	; 80000ce4 <xTaskCreate+0x260>
80000b6c:	e12fff33 	blx	r3
80000b70:	e59f3170 	ldr	r3, [pc, #368]	; 80000ce8 <xTaskCreate+0x264>
80000b74:	e5932000 	ldr	r2, [r3]
80000b78:	e2822001 	add	r2, r2, #1
80000b7c:	e5832000 	str	r2, [r3]
80000b80:	e5942000 	ldr	r2, [r4]
80000b84:	e3520000 	cmp	r2, #0
80000b88:	0a00002d 	beq	80000c44 <xTaskCreate+0x1c0>
80000b8c:	e59f6158 	ldr	r6, [pc, #344]	; 80000cec <xTaskCreate+0x268>
80000b90:	e5963000 	ldr	r3, [r6]
80000b94:	e3530000 	cmp	r3, #0
80000b98:	0a00001b 	beq	80000c0c <xTaskCreate+0x188>
80000b9c:	e599302c 	ldr	r3, [r9, #44]	; 0x2c
80000ba0:	e59f7148 	ldr	r7, [pc, #328]	; 80000cf0 <xTaskCreate+0x26c>
80000ba4:	e59f2148 	ldr	r2, [pc, #328]	; 80000cf4 <xTaskCreate+0x270>
80000ba8:	e59f1148 	ldr	r1, [pc, #328]	; 80000cf8 <xTaskCreate+0x274>
80000bac:	e5920000 	ldr	r0, [r2]
80000bb0:	e591c000 	ldr	ip, [r1]
80000bb4:	e2800001 	add	r0, r0, #1
80000bb8:	e5820000 	str	r0, [r2]
80000bbc:	e0830103 	add	r0, r3, r3, lsl #2
80000bc0:	e15c0003 	cmp	ip, r3
80000bc4:	35813000 	strcc	r3, [r1]
80000bc8:	e1a01005 	mov	r1, r5
80000bcc:	e0870100 	add	r0, r7, r0, lsl #2
80000bd0:	e59f3124 	ldr	r3, [pc, #292]	; 80000cfc <xTaskCreate+0x278>
80000bd4:	e12fff33 	blx	r3
80000bd8:	e59f3120 	ldr	r3, [pc, #288]	; 80000d00 <xTaskCreate+0x27c>
80000bdc:	e12fff33 	blx	r3
80000be0:	e5963000 	ldr	r3, [r6]
80000be4:	e3530000 	cmp	r3, #0
80000be8:	0a00000e 	beq	80000c28 <xTaskCreate+0x1a4>
80000bec:	e5942000 	ldr	r2, [r4]
80000bf0:	e599302c 	ldr	r3, [r9, #44]	; 0x2c
80000bf4:	e592202c 	ldr	r2, [r2, #44]	; 0x2c
80000bf8:	e1520003 	cmp	r2, r3
80000bfc:	2a000009 	bcs	80000c28 <xTaskCreate+0x1a4>
80000c00:	ef000000 	svc	0x00000000
80000c04:	e3a00001 	mov	r0, #1
80000c08:	e8bd8ff8 	pop	{r3, r4, r5, r6, r7, r8, r9, sl, fp, pc}
80000c0c:	e5942000 	ldr	r2, [r4]
80000c10:	e599302c 	ldr	r3, [r9, #44]	; 0x2c
80000c14:	e59f70d4 	ldr	r7, [pc, #212]	; 80000cf0 <xTaskCreate+0x26c>
80000c18:	e592202c 	ldr	r2, [r2, #44]	; 0x2c
80000c1c:	e1520003 	cmp	r2, r3
80000c20:	95849000 	strls	r9, [r4]
80000c24:	eaffffde 	b	80000ba4 <xTaskCreate+0x120>
80000c28:	e3a00001 	mov	r0, #1
80000c2c:	e8bd8ff8 	pop	{r3, r4, r5, r6, r7, r8, r9, sl, fp, pc}
80000c30:	e1a0000a 	mov	r0, sl
80000c34:	e59f30c8 	ldr	r3, [pc, #200]	; 80000d04 <xTaskCreate+0x280>
80000c38:	e12fff33 	blx	r3
80000c3c:	e3e00000 	mvn	r0, #0
80000c40:	e8bd8ff8 	pop	{r3, r4, r5, r6, r7, r8, r9, sl, fp, pc}
80000c44:	e5849000 	str	r9, [r4]
80000c48:	e5933000 	ldr	r3, [r3]
80000c4c:	e3530001 	cmp	r3, #1
80000c50:	1599302c 	ldrne	r3, [r9, #44]	; 0x2c
80000c54:	159f7094 	ldrne	r7, [pc, #148]	; 80000cf0 <xTaskCreate+0x26c>
80000c58:	159f608c 	ldrne	r6, [pc, #140]	; 80000cec <xTaskCreate+0x268>
80000c5c:	1affffd0 	bne	80000ba4 <xTaskCreate+0x120>
80000c60:	e59f7088 	ldr	r7, [pc, #136]	; 80000cf0 <xTaskCreate+0x26c>
80000c64:	e1a06002 	mov	r6, r2
80000c68:	e59fa098 	ldr	sl, [pc, #152]	; 80000d08 <xTaskCreate+0x284>
80000c6c:	e0860106 	add	r0, r6, r6, lsl #2
80000c70:	e2866001 	add	r6, r6, #1
80000c74:	e59f808c 	ldr	r8, [pc, #140]	; 80000d08 <xTaskCreate+0x284>
80000c78:	e0870100 	add	r0, r7, r0, lsl #2
80000c7c:	e12fff3a 	blx	sl
80000c80:	e3560005 	cmp	r6, #5
80000c84:	1afffff8 	bne	80000c6c <xTaskCreate+0x1e8>
80000c88:	e59fb07c 	ldr	fp, [pc, #124]	; 80000d0c <xTaskCreate+0x288>
80000c8c:	e59fa07c 	ldr	sl, [pc, #124]	; 80000d10 <xTaskCreate+0x28c>
80000c90:	e59f6054 	ldr	r6, [pc, #84]	; 80000cec <xTaskCreate+0x268>
80000c94:	e1a0000b 	mov	r0, fp
80000c98:	e12fff38 	blx	r8
80000c9c:	e1a0000a 	mov	r0, sl
80000ca0:	e12fff38 	blx	r8
80000ca4:	e59f0068 	ldr	r0, [pc, #104]	; 80000d14 <xTaskCreate+0x290>
80000ca8:	e12fff38 	blx	r8
80000cac:	e59f0064 	ldr	r0, [pc, #100]	; 80000d18 <xTaskCreate+0x294>
80000cb0:	e12fff38 	blx	r8
80000cb4:	e59f0060 	ldr	r0, [pc, #96]	; 80000d1c <xTaskCreate+0x298>
80000cb8:	e12fff38 	blx	r8
80000cbc:	e59f205c 	ldr	r2, [pc, #92]	; 80000d20 <xTaskCreate+0x29c>
80000cc0:	e599302c 	ldr	r3, [r9, #44]	; 0x2c
80000cc4:	e582b000 	str	fp, [r2]
80000cc8:	e59f2054 	ldr	r2, [pc, #84]	; 80000d24 <xTaskCreate+0x2a0>
80000ccc:	e582a000 	str	sl, [r2]
80000cd0:	eaffffb3 	b	80000ba4 <xTaskCreate+0x120>
80000cd4:	800012d4 	.word	0x800012d4
80000cd8:	80001388 	.word	0x80001388
80000cdc:	800013f4 	.word	0x800013f4
80000ce0:	80001e10 	.word	0x80001e10
80000ce4:	800009dc 	.word	0x800009dc
80000ce8:	80001e3c 	.word	0x80001e3c
80000cec:	80001d74 	.word	0x80001d74
80000cf0:	80001d94 	.word	0x80001d94
80000cf4:	80001e38 	.word	0x80001e38
80000cf8:	80001e68 	.word	0x80001e68
80000cfc:	80001394 	.word	0x80001394
80000d00:	80000a08 	.word	0x80000a08
80000d04:	80001360 	.word	0x80001360
80000d08:	80001364 	.word	0x80001364
80000d0c:	80001d7c 	.word	0x80001d7c
80000d10:	80001e40 	.word	0x80001e40
80000d14:	80001e24 	.word	0x80001e24
80000d18:	80001df8 	.word	0x80001df8
80000d1c:	80001e54 	.word	0x80001e54
80000d20:	80001d70 	.word	0x80001d70
80000d24:	80001e20 	.word	0x80001e20

80000d28 <vTaskStartScheduler>:
80000d28:	e59f1074 	ldr	r1, [pc, #116]	; 80000da4 <vTaskStartScheduler+0x7c>
80000d2c:	e3a02032 	mov	r2, #50	; 0x32
80000d30:	e92d4010 	push	{r4, lr}
80000d34:	e24dd008 	sub	sp, sp, #8
80000d38:	e3a04000 	mov	r4, #0
80000d3c:	e59f0064 	ldr	r0, [pc, #100]	; 80000da8 <vTaskStartScheduler+0x80>
80000d40:	e58d1004 	str	r1, [sp, #4]
80000d44:	e1a03004 	mov	r3, r4
80000d48:	e58d4000 	str	r4, [sp]
80000d4c:	e59f1058 	ldr	r1, [pc, #88]	; 80000dac <vTaskStartScheduler+0x84>
80000d50:	e59fc058 	ldr	ip, [pc, #88]	; 80000db0 <vTaskStartScheduler+0x88>
80000d54:	e12fff3c 	blx	ip
80000d58:	e3500001 	cmp	r0, #1
80000d5c:	0a000001 	beq	80000d68 <vTaskStartScheduler+0x40>
80000d60:	e28dd008 	add	sp, sp, #8
80000d64:	e8bd8010 	pop	{r4, pc}
80000d68:	e92d0001 	push	{r0}
80000d6c:	e10f0000 	mrs	r0, CPSR
80000d70:	e38000c0 	orr	r0, r0, #192	; 0xc0
80000d74:	e129f000 	msr	CPSR_fc, r0
80000d78:	e8bd0001 	pop	{r0}
80000d7c:	e59f3030 	ldr	r3, [pc, #48]	; 80000db4 <vTaskStartScheduler+0x8c>
80000d80:	e3e02000 	mvn	r2, #0
80000d84:	e5832000 	str	r2, [r3]
80000d88:	e59f3028 	ldr	r3, [pc, #40]	; 80000db8 <vTaskStartScheduler+0x90>
80000d8c:	e5830000 	str	r0, [r3]
80000d90:	e59f3024 	ldr	r3, [pc, #36]	; 80000dbc <vTaskStartScheduler+0x94>
80000d94:	e5834000 	str	r4, [r3]
80000d98:	e59f3020 	ldr	r3, [pc, #32]	; 80000dc0 <vTaskStartScheduler+0x98>
80000d9c:	e12fff33 	blx	r3
80000da0:	eaffffee 	b	80000d60 <vTaskStartScheduler+0x38>
80000da4:	80001e18 	.word	0x80001e18
80000da8:	80001134 	.word	0x80001134
80000dac:	80001d60 	.word	0x80001d60
80000db0:	80000a84 	.word	0x80000a84
80000db4:	80001e14 	.word	0x80001e14
80000db8:	80001d74 	.word	0x80001d74
80000dbc:	80001e1c 	.word	0x80001e1c
80000dc0:	8000157c 	.word	0x8000157c

80000dc4 <vTaskSuspendAll>:
80000dc4:	e3013d78 	movw	r3, #7544	; 0x1d78
80000dc8:	e3483000 	movt	r3, #32768	; 0x8000
80000dcc:	e5932000 	ldr	r2, [r3]
80000dd0:	e2822001 	add	r2, r2, #1
80000dd4:	e5832000 	str	r2, [r3]
80000dd8:	e12fff1e 	bx	lr

80000ddc <xTaskIncrementTick>:
80000ddc:	e59f31a0 	ldr	r3, [pc, #416]	; 80000f84 <xTaskIncrementTick+0x1a8>
80000de0:	e92d4ff0 	push	{r4, r5, r6, r7, r8, r9, sl, fp, lr}
80000de4:	e24dd00c 	sub	sp, sp, #12
80000de8:	e5933000 	ldr	r3, [r3]
80000dec:	e3530000 	cmp	r3, #0
80000df0:	1a00001b 	bne	80000e64 <xTaskIncrementTick+0x88>
80000df4:	e59f318c 	ldr	r3, [pc, #396]	; 80000f88 <xTaskIncrementTick+0x1ac>
80000df8:	e593b000 	ldr	fp, [r3]
80000dfc:	e28bb001 	add	fp, fp, #1
80000e00:	e58db004 	str	fp, [sp, #4]
80000e04:	e35b0000 	cmp	fp, #0
80000e08:	e583b000 	str	fp, [r3]
80000e0c:	0a00004b 	beq	80000f40 <xTaskIncrementTick+0x164>
80000e10:	e3012e14 	movw	r2, #7700	; 0x1e14
80000e14:	e3482000 	movt	r2, #32768	; 0x8000
80000e18:	e5923000 	ldr	r3, [r2]
80000e1c:	e59d2004 	ldr	r2, [sp, #4]
80000e20:	e1520003 	cmp	r2, r3
80000e24:	3a00001a 	bcc	80000e94 <xTaskIncrementTick+0xb8>
80000e28:	e59f815c 	ldr	r8, [pc, #348]	; 80000f8c <xTaskIncrementTick+0x1b0>
80000e2c:	e3a04000 	mov	r4, #0
80000e30:	e59f9158 	ldr	r9, [pc, #344]	; 80000f90 <xTaskIncrementTick+0x1b4>
80000e34:	e59fa158 	ldr	sl, [pc, #344]	; 80000f94 <xTaskIncrementTick+0x1b8>
80000e38:	e59f6158 	ldr	r6, [pc, #344]	; 80000f98 <xTaskIncrementTick+0x1bc>
80000e3c:	e59f7158 	ldr	r7, [pc, #344]	; 80000f9c <xTaskIncrementTick+0x1c0>
80000e40:	e5983000 	ldr	r3, [r8]
80000e44:	e5933000 	ldr	r3, [r3]
80000e48:	e3530000 	cmp	r3, #0
80000e4c:	1a00001a 	bne	80000ebc <xTaskIncrementTick+0xe0>
80000e50:	e3012e14 	movw	r2, #7700	; 0x1e14
80000e54:	e3482000 	movt	r2, #32768	; 0x8000
80000e58:	e3e03000 	mvn	r3, #0
80000e5c:	e5823000 	str	r3, [r2]
80000e60:	ea00000e 	b	80000ea0 <xTaskIncrementTick+0xc4>
80000e64:	e59f3134 	ldr	r3, [pc, #308]	; 80000fa0 <xTaskIncrementTick+0x1c4>
80000e68:	e3a04000 	mov	r4, #0
80000e6c:	e5932000 	ldr	r2, [r3]
80000e70:	e2822001 	add	r2, r2, #1
80000e74:	e5832000 	str	r2, [r3]
80000e78:	e59f3124 	ldr	r3, [pc, #292]	; 80000fa4 <xTaskIncrementTick+0x1c8>
80000e7c:	e5933000 	ldr	r3, [r3]
80000e80:	e3530000 	cmp	r3, #0
80000e84:	13a04001 	movne	r4, #1
80000e88:	e1a00004 	mov	r0, r4
80000e8c:	e28dd00c 	add	sp, sp, #12
80000e90:	e8bd8ff0 	pop	{r4, r5, r6, r7, r8, r9, sl, fp, pc}
80000e94:	e59f90f4 	ldr	r9, [pc, #244]	; 80000f90 <xTaskIncrementTick+0x1b4>
80000e98:	e3a04000 	mov	r4, #0
80000e9c:	e59fa0f0 	ldr	sl, [pc, #240]	; 80000f94 <xTaskIncrementTick+0x1b8>
80000ea0:	e59a3000 	ldr	r3, [sl]
80000ea4:	e593302c 	ldr	r3, [r3, #44]	; 0x2c
80000ea8:	e0833103 	add	r3, r3, r3, lsl #2
80000eac:	e7993103 	ldr	r3, [r9, r3, lsl #2]
80000eb0:	e3530001 	cmp	r3, #1
80000eb4:	83a04001 	movhi	r4, #1
80000eb8:	eaffffee 	b	80000e78 <xTaskIncrementTick+0x9c>
80000ebc:	e3012d70 	movw	r2, #7536	; 0x1d70
80000ec0:	e3482000 	movt	r2, #32768	; 0x8000
80000ec4:	e5923000 	ldr	r3, [r2]
80000ec8:	e593300c 	ldr	r3, [r3, #12]
80000ecc:	e593b00c 	ldr	fp, [r3, #12]
80000ed0:	e59d3004 	ldr	r3, [sp, #4]
80000ed4:	e28b5004 	add	r5, fp, #4
80000ed8:	e59b2004 	ldr	r2, [fp, #4]
80000edc:	e1a00005 	mov	r0, r5
80000ee0:	e1530002 	cmp	r3, r2
80000ee4:	3a000022 	bcc	80000f74 <xTaskIncrementTick+0x198>
80000ee8:	e12fff36 	blx	r6
80000eec:	e59b2028 	ldr	r2, [fp, #40]	; 0x28
80000ef0:	e28b0018 	add	r0, fp, #24
80000ef4:	e3520000 	cmp	r2, #0
80000ef8:	0a000000 	beq	80000f00 <xTaskIncrementTick+0x124>
80000efc:	e12fff36 	blx	r6
80000f00:	e59b202c 	ldr	r2, [fp, #44]	; 0x2c
80000f04:	e1a01005 	mov	r1, r5
80000f08:	e597c000 	ldr	ip, [r7]
80000f0c:	e0820102 	add	r0, r2, r2, lsl #2
80000f10:	e152000c 	cmp	r2, ip
80000f14:	85872000 	strhi	r2, [r7]
80000f18:	e3012394 	movw	r2, #5012	; 0x1394
80000f1c:	e0890100 	add	r0, r9, r0, lsl #2
80000f20:	e3482000 	movt	r2, #32768	; 0x8000
80000f24:	e12fff32 	blx	r2
80000f28:	e59a1000 	ldr	r1, [sl]
80000f2c:	e59b202c 	ldr	r2, [fp, #44]	; 0x2c
80000f30:	e591302c 	ldr	r3, [r1, #44]	; 0x2c
80000f34:	e1520003 	cmp	r2, r3
80000f38:	23a04001 	movcs	r4, #1
80000f3c:	eaffffbf 	b	80000e40 <xTaskIncrementTick+0x64>
80000f40:	e59f8044 	ldr	r8, [pc, #68]	; 80000f8c <xTaskIncrementTick+0x1b0>
80000f44:	e59f205c 	ldr	r2, [pc, #92]	; 80000fa8 <xTaskIncrementTick+0x1cc>
80000f48:	e59f305c 	ldr	r3, [pc, #92]	; 80000fac <xTaskIncrementTick+0x1d0>
80000f4c:	e5981000 	ldr	r1, [r8]
80000f50:	e5920000 	ldr	r0, [r2]
80000f54:	e5880000 	str	r0, [r8]
80000f58:	e5821000 	str	r1, [r2]
80000f5c:	e5932000 	ldr	r2, [r3]
80000f60:	e2822001 	add	r2, r2, #1
80000f64:	e5832000 	str	r2, [r3]
80000f68:	e59f3040 	ldr	r3, [pc, #64]	; 80000fb0 <xTaskIncrementTick+0x1d4>
80000f6c:	e12fff33 	blx	r3
80000f70:	eaffffa6 	b	80000e10 <xTaskIncrementTick+0x34>
80000f74:	e3013e14 	movw	r3, #7700	; 0x1e14
80000f78:	e3483000 	movt	r3, #32768	; 0x8000
80000f7c:	e5832000 	str	r2, [r3]
80000f80:	eaffffc6 	b	80000ea0 <xTaskIncrementTick+0xc4>
80000f84:	80001d78 	.word	0x80001d78
80000f88:	80001e1c 	.word	0x80001e1c
80000f8c:	80001d70 	.word	0x80001d70
80000f90:	80001d94 	.word	0x80001d94
80000f94:	80001e10 	.word	0x80001e10
80000f98:	800013bc 	.word	0x800013bc
80000f9c:	80001e68 	.word	0x80001e68
80000fa0:	80001d90 	.word	0x80001d90
80000fa4:	80001e6c 	.word	0x80001e6c
80000fa8:	80001e20 	.word	0x80001e20
80000fac:	80001d6c 	.word	0x80001d6c
80000fb0:	80000a4c 	.word	0x80000a4c

80000fb4 <xTaskResumeAll>:
80000fb4:	e92d4ff8 	push	{r3, r4, r5, r6, r7, r8, r9, sl, fp, lr}
80000fb8:	e59f3144 	ldr	r3, [pc, #324]	; 80001104 <xTaskResumeAll+0x150>
80000fbc:	e12fff33 	blx	r3
80000fc0:	e59f3140 	ldr	r3, [pc, #320]	; 80001108 <xTaskResumeAll+0x154>
80000fc4:	e5932000 	ldr	r2, [r3]
80000fc8:	e2422001 	sub	r2, r2, #1
80000fcc:	e5832000 	str	r2, [r3]
80000fd0:	e5933000 	ldr	r3, [r3]
80000fd4:	e3530000 	cmp	r3, #0
80000fd8:	1a000044 	bne	800010f0 <xTaskResumeAll+0x13c>
80000fdc:	e59f2128 	ldr	r2, [pc, #296]	; 8000110c <xTaskResumeAll+0x158>
80000fe0:	e5922000 	ldr	r2, [r2]
80000fe4:	e3520000 	cmp	r2, #0
80000fe8:	0a000040 	beq	800010f0 <xTaskResumeAll+0x13c>
80000fec:	e59f711c 	ldr	r7, [pc, #284]	; 80001110 <xTaskResumeAll+0x15c>
80000ff0:	e1a08003 	mov	r8, r3
80000ff4:	e59f5118 	ldr	r5, [pc, #280]	; 80001114 <xTaskResumeAll+0x160>
80000ff8:	e59f6118 	ldr	r6, [pc, #280]	; 80001118 <xTaskResumeAll+0x164>
80000ffc:	e59f9118 	ldr	r9, [pc, #280]	; 8000111c <xTaskResumeAll+0x168>
80001000:	e1a0b007 	mov	fp, r7
80001004:	e59fa114 	ldr	sl, [pc, #276]	; 80001120 <xTaskResumeAll+0x16c>
80001008:	e5972000 	ldr	r2, [r7]
8000100c:	e3520000 	cmp	r2, #0
80001010:	0a00001c 	beq	80001088 <xTaskResumeAll+0xd4>
80001014:	e59b300c 	ldr	r3, [fp, #12]
80001018:	e593800c 	ldr	r8, [r3, #12]
8000101c:	e2884004 	add	r4, r8, #4
80001020:	e2880018 	add	r0, r8, #24
80001024:	e12fff35 	blx	r5
80001028:	e1a00004 	mov	r0, r4
8000102c:	e12fff35 	blx	r5
80001030:	e598202c 	ldr	r2, [r8, #44]	; 0x2c
80001034:	e596c000 	ldr	ip, [r6]
80001038:	e1a01004 	mov	r1, r4
8000103c:	e0820102 	add	r0, r2, r2, lsl #2
80001040:	e152000c 	cmp	r2, ip
80001044:	85862000 	strhi	r2, [r6]
80001048:	e0890100 	add	r0, r9, r0, lsl #2
8000104c:	e12fff3a 	blx	sl
80001050:	e3013e10 	movw	r3, #7696	; 0x1e10
80001054:	e3483000 	movt	r3, #32768	; 0x8000
80001058:	e598102c 	ldr	r1, [r8, #44]	; 0x2c
8000105c:	e5932000 	ldr	r2, [r3]
80001060:	e592202c 	ldr	r2, [r2, #44]	; 0x2c
80001064:	e1510002 	cmp	r1, r2
80001068:	3affffe6 	bcc	80001008 <xTaskResumeAll+0x54>
8000106c:	e3013e6c 	movw	r3, #7788	; 0x1e6c
80001070:	e3483000 	movt	r3, #32768	; 0x8000
80001074:	e3a02001 	mov	r2, #1
80001078:	e5832000 	str	r2, [r3]
8000107c:	e5972000 	ldr	r2, [r7]
80001080:	e3520000 	cmp	r2, #0
80001084:	1affffe2 	bne	80001014 <xTaskResumeAll+0x60>
80001088:	e3580000 	cmp	r8, #0
8000108c:	0a000001 	beq	80001098 <xTaskResumeAll+0xe4>
80001090:	e59f308c 	ldr	r3, [pc, #140]	; 80001124 <xTaskResumeAll+0x170>
80001094:	e12fff33 	blx	r3
80001098:	e59f6088 	ldr	r6, [pc, #136]	; 80001128 <xTaskResumeAll+0x174>
8000109c:	e5964000 	ldr	r4, [r6]
800010a0:	e3540000 	cmp	r4, #0
800010a4:	0a000009 	beq	800010d0 <xTaskResumeAll+0x11c>
800010a8:	e59f507c 	ldr	r5, [pc, #124]	; 8000112c <xTaskResumeAll+0x178>
800010ac:	e3a07001 	mov	r7, #1
800010b0:	e12fff35 	blx	r5
800010b4:	e3500000 	cmp	r0, #0
800010b8:	13012e6c 	movwne	r2, #7788	; 0x1e6c
800010bc:	13482000 	movtne	r2, #32768	; 0x8000
800010c0:	15827000 	strne	r7, [r2]
800010c4:	e2544001 	subs	r4, r4, #1
800010c8:	1afffff8 	bne	800010b0 <xTaskResumeAll+0xfc>
800010cc:	e5864000 	str	r4, [r6]
800010d0:	e3012e6c 	movw	r2, #7788	; 0x1e6c
800010d4:	e3482000 	movt	r2, #32768	; 0x8000
800010d8:	e5923000 	ldr	r3, [r2]
800010dc:	e3530000 	cmp	r3, #0
800010e0:	0a000002 	beq	800010f0 <xTaskResumeAll+0x13c>
800010e4:	ef000000 	svc	0x00000000
800010e8:	e3a04001 	mov	r4, #1
800010ec:	ea000000 	b	800010f4 <xTaskResumeAll+0x140>
800010f0:	e3a04000 	mov	r4, #0
800010f4:	e59f3034 	ldr	r3, [pc, #52]	; 80001130 <xTaskResumeAll+0x17c>
800010f8:	e12fff33 	blx	r3
800010fc:	e1a00004 	mov	r0, r4
80001100:	e8bd8ff8 	pop	{r3, r4, r5, r6, r7, r8, r9, sl, fp, pc}
80001104:	800009dc 	.word	0x800009dc
80001108:	80001d78 	.word	0x80001d78
8000110c:	80001e3c 	.word	0x80001e3c
80001110:	80001e24 	.word	0x80001e24
80001114:	800013bc 	.word	0x800013bc
80001118:	80001e68 	.word	0x80001e68
8000111c:	80001d94 	.word	0x80001d94
80001120:	80001394 	.word	0x80001394
80001124:	80000a4c 	.word	0x80000a4c
80001128:	80001d90 	.word	0x80001d90
8000112c:	80000ddc 	.word	0x80000ddc
80001130:	80000a08 	.word	0x80000a08

80001134 <prvIdleTask>:
80001134:	e92d4ff8 	push	{r3, r4, r5, r6, r7, r8, r9, sl, fp, lr}
80001138:	e59f50c8 	ldr	r5, [pc, #200]	; 80001208 <prvIdleTask+0xd4>
8000113c:	e59f60c8 	ldr	r6, [pc, #200]	; 8000120c <prvIdleTask+0xd8>
80001140:	e59f40c8 	ldr	r4, [pc, #200]	; 80001210 <prvIdleTask+0xdc>
80001144:	e59f70c8 	ldr	r7, [pc, #200]	; 80001214 <prvIdleTask+0xe0>
80001148:	e1a0a005 	mov	sl, r5
8000114c:	e1a0b006 	mov	fp, r6
80001150:	e59f90c0 	ldr	r9, [pc, #192]	; 80001218 <prvIdleTask+0xe4>
80001154:	ea000006 	b	80001174 <prvIdleTask+0x40>
80001158:	e5943000 	ldr	r3, [r4]
8000115c:	e5968000 	ldr	r8, [r6]
80001160:	e2833001 	add	r3, r3, #1
80001164:	e5843000 	str	r3, [r4]
80001168:	e12fff37 	blx	r7
8000116c:	e3580000 	cmp	r8, #0
80001170:	1a000007 	bne	80001194 <prvIdleTask+0x60>
80001174:	e5953000 	ldr	r3, [r5]
80001178:	e3530000 	cmp	r3, #0
8000117c:	1afffff5 	bne	80001158 <prvIdleTask+0x24>
80001180:	e5993000 	ldr	r3, [r9]
80001184:	e3530001 	cmp	r3, #1
80001188:	9afffff9 	bls	80001174 <prvIdleTask+0x40>
8000118c:	ef000000 	svc	0x00000000
80001190:	eafffff7 	b	80001174 <prvIdleTask+0x40>
80001194:	e30029dc 	movw	r2, #2524	; 0x9dc
80001198:	e3482000 	movt	r2, #32768	; 0x8000
8000119c:	e12fff32 	blx	r2
800011a0:	e59b300c 	ldr	r3, [fp, #12]
800011a4:	e593800c 	ldr	r8, [r3, #12]
800011a8:	e30133bc 	movw	r3, #5052	; 0x13bc
800011ac:	e3483000 	movt	r3, #32768	; 0x8000
800011b0:	e2880004 	add	r0, r8, #4
800011b4:	e12fff33 	blx	r3
800011b8:	e3012e3c 	movw	r2, #7740	; 0x1e3c
800011bc:	e3482000 	movt	r2, #32768	; 0x8000
800011c0:	e5923000 	ldr	r3, [r2]
800011c4:	e2433001 	sub	r3, r3, #1
800011c8:	e5823000 	str	r3, [r2]
800011cc:	e59a3000 	ldr	r3, [sl]
800011d0:	e2433001 	sub	r3, r3, #1
800011d4:	e58a3000 	str	r3, [sl]
800011d8:	e3003a08 	movw	r3, #2568	; 0xa08
800011dc:	e3483000 	movt	r3, #32768	; 0x8000
800011e0:	e12fff33 	blx	r3
800011e4:	e5980030 	ldr	r0, [r8, #48]	; 0x30
800011e8:	e3012360 	movw	r2, #4960	; 0x1360
800011ec:	e3482000 	movt	r2, #32768	; 0x8000
800011f0:	e12fff32 	blx	r2
800011f4:	e1a00008 	mov	r0, r8
800011f8:	e3013360 	movw	r3, #4960	; 0x1360
800011fc:	e3483000 	movt	r3, #32768	; 0x8000
80001200:	e12fff33 	blx	r3
80001204:	eaffffda 	b	80001174 <prvIdleTask+0x40>
80001208:	80001e0c 	.word	0x80001e0c
8000120c:	80001df8 	.word	0x80001df8
80001210:	80001d78 	.word	0x80001d78
80001214:	80000fb4 	.word	0x80000fb4
80001218:	80001d94 	.word	0x80001d94

8000121c <vTaskSwitchContext>:
8000121c:	e59f309c 	ldr	r3, [pc, #156]	; 800012c0 <vTaskSwitchContext+0xa4>
80001220:	e52d4004 	push	{r4}		; (str r4, [sp, #-4]!)
80001224:	e5933000 	ldr	r3, [r3]
80001228:	e3530000 	cmp	r3, #0
8000122c:	1a00001f 	bne	800012b0 <vTaskSwitchContext+0x94>
80001230:	e59f208c 	ldr	r2, [pc, #140]	; 800012c4 <vTaskSwitchContext+0xa8>
80001234:	e59fc08c 	ldr	ip, [pc, #140]	; 800012c8 <vTaskSwitchContext+0xac>
80001238:	e59f008c 	ldr	r0, [pc, #140]	; 800012cc <vTaskSwitchContext+0xb0>
8000123c:	e5823000 	str	r3, [r2]
80001240:	e59c3000 	ldr	r3, [ip]
80001244:	e1a01103 	lsl	r1, r3, #2
80001248:	e0814003 	add	r4, r1, r3
8000124c:	e1a04104 	lsl	r4, r4, #2
80001250:	e0802004 	add	r2, r0, r4
80001254:	e7904004 	ldr	r4, [r0, r4]
80001258:	e3540000 	cmp	r4, #0
8000125c:	1a000004 	bne	80001274 <vTaskSwitchContext+0x58>
80001260:	e5321014 	ldr	r1, [r2, #-20]!
80001264:	e2433001 	sub	r3, r3, #1
80001268:	e3510000 	cmp	r1, #0
8000126c:	0afffffb 	beq	80001260 <vTaskSwitchContext+0x44>
80001270:	e1a01103 	lsl	r1, r3, #2
80001274:	e0811003 	add	r1, r1, r3
80001278:	e0801101 	add	r1, r0, r1, lsl #2
8000127c:	e2810008 	add	r0, r1, #8
80001280:	e5912004 	ldr	r2, [r1, #4]
80001284:	e5922004 	ldr	r2, [r2, #4]
80001288:	e1520000 	cmp	r2, r0
8000128c:	e5812004 	str	r2, [r1, #4]
80001290:	05922004 	ldreq	r2, [r2, #4]
80001294:	05812004 	streq	r2, [r1, #4]
80001298:	e592100c 	ldr	r1, [r2, #12]
8000129c:	e59f202c 	ldr	r2, [pc, #44]	; 800012d0 <vTaskSwitchContext+0xb4>
800012a0:	e5821000 	str	r1, [r2]
800012a4:	e58c3000 	str	r3, [ip]
800012a8:	e8bd0010 	pop	{r4}
800012ac:	e12fff1e 	bx	lr
800012b0:	e59f300c 	ldr	r3, [pc, #12]	; 800012c4 <vTaskSwitchContext+0xa8>
800012b4:	e3a02001 	mov	r2, #1
800012b8:	e5832000 	str	r2, [r3]
800012bc:	eafffff9 	b	800012a8 <vTaskSwitchContext+0x8c>
800012c0:	80001d78 	.word	0x80001d78
800012c4:	80001e6c 	.word	0x80001e6c
800012c8:	80001e68 	.word	0x80001e68
800012cc:	80001d94 	.word	0x80001d94
800012d0:	80001e10 	.word	0x80001e10

800012d4 <pvPortMalloc>:
800012d4:	e3100007 	tst	r0, #7
800012d8:	e59f306c 	ldr	r3, [pc, #108]	; 8000134c <pvPortMalloc+0x78>
800012dc:	e92d4010 	push	{r4, lr}
800012e0:	e1a04000 	mov	r4, r0
800012e4:	13c04007 	bicne	r4, r0, #7
800012e8:	12844008 	addne	r4, r4, #8
800012ec:	e12fff33 	blx	r3
800012f0:	e59f2058 	ldr	r2, [pc, #88]	; 80001350 <pvPortMalloc+0x7c>
800012f4:	e3050ff7 	movw	r0, #24567	; 0x5ff7
800012f8:	e59f1054 	ldr	r1, [pc, #84]	; 80001354 <pvPortMalloc+0x80>
800012fc:	e5923000 	ldr	r3, [r2]
80001300:	e3530000 	cmp	r3, #0
80001304:	059f304c 	ldreq	r3, [pc, #76]	; 80001358 <pvPortMalloc+0x84>
80001308:	03c33007 	biceq	r3, r3, #7
8000130c:	05823000 	streq	r3, [r2]
80001310:	e5913000 	ldr	r3, [r1]
80001314:	e0844003 	add	r4, r4, r3
80001318:	e1540000 	cmp	r4, r0
8000131c:	8a000008 	bhi	80001344 <pvPortMalloc+0x70>
80001320:	e1530004 	cmp	r3, r4
80001324:	2a000006 	bcs	80001344 <pvPortMalloc+0x70>
80001328:	e5922000 	ldr	r2, [r2]
8000132c:	e5814000 	str	r4, [r1]
80001330:	e0824003 	add	r4, r2, r3
80001334:	e59f3020 	ldr	r3, [pc, #32]	; 8000135c <pvPortMalloc+0x88>
80001338:	e12fff33 	blx	r3
8000133c:	e1a00004 	mov	r0, r4
80001340:	e8bd8010 	pop	{r4, pc}
80001344:	e3a04000 	mov	r4, #0
80001348:	eafffff9 	b	80001334 <pvPortMalloc+0x60>
8000134c:	80000dc4 	.word	0x80000dc4
80001350:	80007e74 	.word	0x80007e74
80001354:	80001e70 	.word	0x80001e70
80001358:	80001e7c 	.word	0x80001e7c
8000135c:	80000fb4 	.word	0x80000fb4

80001360 <vPortFree>:
80001360:	e12fff1e 	bx	lr

80001364 <vListInitialise>:
80001364:	e2803008 	add	r3, r0, #8
80001368:	e3e02000 	mvn	r2, #0
8000136c:	e5803004 	str	r3, [r0, #4]
80001370:	e580300c 	str	r3, [r0, #12]
80001374:	e5803010 	str	r3, [r0, #16]
80001378:	e3a03000 	mov	r3, #0
8000137c:	e5802008 	str	r2, [r0, #8]
80001380:	e5803000 	str	r3, [r0]
80001384:	e12fff1e 	bx	lr

80001388 <vListInitialiseItem>:
80001388:	e3a03000 	mov	r3, #0
8000138c:	e5803010 	str	r3, [r0, #16]
80001390:	e12fff1e 	bx	lr

80001394 <vListInsertEnd>:
80001394:	e890000c 	ldm	r0, {r2, r3}
80001398:	e5810010 	str	r0, [r1, #16]
8000139c:	e2822001 	add	r2, r2, #1
800013a0:	e593c008 	ldr	ip, [r3, #8]
800013a4:	e9811008 	stmib	r1, {r3, ip}
800013a8:	e593c008 	ldr	ip, [r3, #8]
800013ac:	e5831008 	str	r1, [r3, #8]
800013b0:	e58c1004 	str	r1, [ip, #4]
800013b4:	e5802000 	str	r2, [r0]
800013b8:	e12fff1e 	bx	lr

800013bc <uxListRemove>:
800013bc:	e5903010 	ldr	r3, [r0, #16]
800013c0:	e9901004 	ldmib	r0, {r2, ip}
800013c4:	e5931004 	ldr	r1, [r3, #4]
800013c8:	e582c008 	str	ip, [r2, #8]
800013cc:	e1510000 	cmp	r1, r0
800013d0:	e5901008 	ldr	r1, [r0, #8]
800013d4:	e5812004 	str	r2, [r1, #4]
800013d8:	e5932000 	ldr	r2, [r3]
800013dc:	05831004 	streq	r1, [r3, #4]
800013e0:	e3a01000 	mov	r1, #0
800013e4:	e5801010 	str	r1, [r0, #16]
800013e8:	e2420001 	sub	r0, r2, #1
800013ec:	e5830000 	str	r0, [r3]
800013f0:	e12fff1e 	bx	lr

800013f4 <pxPortInitialiseStack>:
800013f4:	e1a03000 	mov	r3, r0
800013f8:	e2811004 	add	r1, r1, #4
800013fc:	e5831000 	str	r1, [r3]
80001400:	e3011414 	movw	r1, #5140	; 0x1414
80001404:	e7df1811 	bfi	r1, r1, #16, #16
80001408:	e5031004 	str	r1, [r3, #-4]
8000140c:	e3011111 	movw	r1, #4369	; 0x1111
80001410:	e7df1811 	bfi	r1, r1, #16, #16
80001414:	e5031010 	str	r1, [r3, #-16]
80001418:	e3001909 	movw	r1, #2313	; 0x909
8000141c:	e7df1811 	bfi	r1, r1, #16, #16
80001420:	e5031018 	str	r1, [r3, #-24]
80001424:	e3001707 	movw	r1, #1799	; 0x707
80001428:	e7df1811 	bfi	r1, r1, #16, #16
8000142c:	e5031020 	str	r1, [r3, #-32]
80001430:	e3001505 	movw	r1, #1285	; 0x505
80001434:	e7df1811 	bfi	r1, r1, #16, #16
80001438:	e5031028 	str	r1, [r3, #-40]	; 0x28
8000143c:	e3001303 	movw	r1, #771	; 0x303
80001440:	e7df1811 	bfi	r1, r1, #16, #16
80001444:	e5031030 	str	r1, [r3, #-48]	; 0x30
80001448:	e3001101 	movw	r1, #257	; 0x101
8000144c:	e7df1811 	bfi	r1, r1, #16, #16
80001450:	e5031038 	str	r1, [r3, #-56]	; 0x38
80001454:	e30d17d7 	movw	r1, #55255	; 0xd7d7
80001458:	e503203c 	str	r2, [r3, #-60]	; 0x3c
8000145c:	e1a02001 	mov	r2, r1
80001460:	e7df1811 	bfi	r1, r1, #16, #16
80001464:	e5031040 	str	r1, [r3, #-64]	; 0x40
80001468:	e30d16d6 	movw	r1, #54998	; 0xd6d6
8000146c:	e7df2812 	bfi	r2, r2, #16, #16
80001470:	e5032044 	str	r2, [r3, #-68]	; 0x44
80001474:	e1a02001 	mov	r2, r1
80001478:	e7df1811 	bfi	r1, r1, #16, #16
8000147c:	e5031048 	str	r1, [r3, #-72]	; 0x48
80001480:	e30d15d5 	movw	r1, #54741	; 0xd5d5
80001484:	e7df2812 	bfi	r2, r2, #16, #16
80001488:	e503204c 	str	r2, [r3, #-76]	; 0x4c
8000148c:	e1a02001 	mov	r2, r1
80001490:	e7df1811 	bfi	r1, r1, #16, #16
80001494:	e5031050 	str	r1, [r3, #-80]	; 0x50
80001498:	e30d14d4 	movw	r1, #54484	; 0xd4d4
8000149c:	e7df2812 	bfi	r2, r2, #16, #16
800014a0:	e5032054 	str	r2, [r3, #-84]	; 0x54
800014a4:	e1a02001 	mov	r2, r1
800014a8:	e7df1811 	bfi	r1, r1, #16, #16
800014ac:	e5031058 	str	r1, [r3, #-88]	; 0x58
800014b0:	e30d13d3 	movw	r1, #54227	; 0xd3d3
800014b4:	e7df2812 	bfi	r2, r2, #16, #16
800014b8:	e503205c 	str	r2, [r3, #-92]	; 0x5c
800014bc:	e1a02001 	mov	r2, r1
800014c0:	e7df1811 	bfi	r1, r1, #16, #16
800014c4:	e5031060 	str	r1, [r3, #-96]	; 0x60
800014c8:	e30d12d2 	movw	r1, #53970	; 0xd2d2
800014cc:	e7df2812 	bfi	r2, r2, #16, #16
800014d0:	e5032064 	str	r2, [r3, #-100]	; 0x64
800014d4:	e1a02001 	mov	r2, r1
800014d8:	e7df1811 	bfi	r1, r1, #16, #16
800014dc:	e5031068 	str	r1, [r3, #-104]	; 0x68
800014e0:	e30d11d1 	movw	r1, #53713	; 0xd1d1
800014e4:	e7df2812 	bfi	r2, r2, #16, #16
800014e8:	e503206c 	str	r2, [r3, #-108]	; 0x6c
800014ec:	e1a02001 	mov	r2, r1
800014f0:	e7df1811 	bfi	r1, r1, #16, #16
800014f4:	e5031070 	str	r1, [r3, #-112]	; 0x70
800014f8:	e30d10d0 	movw	r1, #53456	; 0xd0d0
800014fc:	e5033008 	str	r3, [r3, #-8]
80001500:	e7df2812 	bfi	r2, r2, #16, #16
80001504:	e301c212 	movw	ip, #4626	; 0x1212
80001508:	e5032074 	str	r2, [r3, #-116]	; 0x74
8000150c:	e7dfc81c 	bfi	ip, ip, #16, #16
80001510:	e1a02001 	mov	r2, r1
80001514:	e503c00c 	str	ip, [r3, #-12]
80001518:	e7df1811 	bfi	r1, r1, #16, #16
8000151c:	e7df2812 	bfi	r2, r2, #16, #16
80001520:	e5031078 	str	r1, [r3, #-120]	; 0x78
80001524:	e503207c 	str	r2, [r3, #-124]	; 0x7c
80001528:	e3a0101f 	mov	r1, #31
8000152c:	e301c010 	movw	ip, #4112	; 0x1010
80001530:	e5031080 	str	r1, [r3, #-128]	; 0x80
80001534:	e7dfc81c 	bfi	ip, ip, #16, #16
80001538:	e3002101 	movw	r2, #257	; 0x101
8000153c:	e503c014 	str	ip, [r3, #-20]
80001540:	e7df2812 	bfi	r2, r2, #16, #16
80001544:	e300c808 	movw	ip, #2056	; 0x808
80001548:	e7dfc81c 	bfi	ip, ip, #16, #16
8000154c:	e503c01c 	str	ip, [r3, #-28]
80001550:	e300c606 	movw	ip, #1542	; 0x606
80001554:	e7dfc81c 	bfi	ip, ip, #16, #16
80001558:	e503c024 	str	ip, [r3, #-36]	; 0x24
8000155c:	e300c404 	movw	ip, #1028	; 0x404
80001560:	e7dfc81c 	bfi	ip, ip, #16, #16
80001564:	e503c02c 	str	ip, [r3, #-44]	; 0x2c
80001568:	e300c202 	movw	ip, #514	; 0x202
8000156c:	e7dfc81c 	bfi	ip, ip, #16, #16
80001570:	e503c034 	str	ip, [r3, #-52]	; 0x34
80001574:	e5202084 	str	r2, [r0, #-132]!	; 0x84
80001578:	e12fff1e 	bx	lr

8000157c <xPortStartScheduler>:
8000157c:	e92d4038 	push	{r3, r4, r5, lr}
80001580:	e3a00003 	mov	r0, #3
80001584:	e3013950 	movw	r3, #6480	; 0x1950
80001588:	e3483000 	movt	r3, #32768	; 0x8000
8000158c:	e12fff33 	blx	r3
80001590:	e3003710 	movw	r3, #1808	; 0x710
80001594:	e3483000 	movt	r3, #32768	; 0x8000
80001598:	e3a04000 	mov	r4, #0
8000159c:	e12fff33 	blx	r3
800015a0:	e3a00044 	mov	r0, #68	; 0x44
800015a4:	e300196c 	movw	r1, #2412	; 0x96c
800015a8:	e3003700 	movw	r3, #1792	; 0x700
800015ac:	e3481000 	movt	r1, #32768	; 0x8000
800015b0:	e3483000 	movt	r3, #32768	; 0x8000
800015b4:	e12fff33 	blx	r3
800015b8:	e3a01000 	mov	r1, #0
800015bc:	e1a02001 	mov	r2, r1
800015c0:	e3a00044 	mov	r0, #68	; 0x44
800015c4:	e3003764 	movw	r3, #1892	; 0x764
800015c8:	e3483000 	movt	r3, #32768	; 0x8000
800015cc:	e12fff33 	blx	r3
800015d0:	e30037c0 	movw	r3, #1984	; 0x7c0
800015d4:	e3483000 	movt	r3, #32768	; 0x8000
800015d8:	e3444804 	movt	r4, #18436	; 0x4804
800015dc:	e12fff33 	blx	r3
800015e0:	e3095e57 	movw	r5, #40535	; 0x9e57
800015e4:	e3a00044 	mov	r0, #68	; 0x44
800015e8:	e34f5fff 	movt	r5, #65535	; 0xffff
800015ec:	e3003788 	movw	r3, #1928	; 0x788
800015f0:	e3483000 	movt	r3, #32768	; 0x8000
800015f4:	e12fff33 	blx	r3
800015f8:	e30137a8 	movw	r3, #6056	; 0x17a8
800015fc:	e3483000 	movt	r3, #32768	; 0x8000
80001600:	e12fff33 	blx	r3
80001604:	e1a00004 	mov	r0, r4
80001608:	e1a01005 	mov	r1, r5
8000160c:	e301373c 	movw	r3, #5948	; 0x173c
80001610:	e3483000 	movt	r3, #32768	; 0x8000
80001614:	e12fff33 	blx	r3
80001618:	e1a00004 	mov	r0, r4
8000161c:	e1a01005 	mov	r1, r5
80001620:	e3013760 	movw	r3, #5984	; 0x1760
80001624:	e3483000 	movt	r3, #32768	; 0x8000
80001628:	e12fff33 	blx	r3
8000162c:	e1a00004 	mov	r0, r4
80001630:	e3a01002 	mov	r1, #2
80001634:	e30136e4 	movw	r3, #5860	; 0x16e4
80001638:	e3483000 	movt	r3, #32768	; 0x8000
8000163c:	e12fff33 	blx	r3
80001640:	e1a00004 	mov	r0, r4
80001644:	e3a01002 	mov	r1, #2
80001648:	e3013790 	movw	r3, #6032	; 0x1790
8000164c:	e3483000 	movt	r3, #32768	; 0x8000
80001650:	e12fff33 	blx	r3
80001654:	e1a00004 	mov	r0, r4
80001658:	e30136b8 	movw	r3, #5816	; 0x16b8
8000165c:	e3483000 	movt	r3, #32768	; 0x8000
80001660:	e12fff33 	blx	r3
80001664:	ef000015 	svc	0x00000015
80001668:	e59f0044 	ldr	r0, [pc, #68]	; 800016b4 <xPortStartScheduler+0x138>
8000166c:	e5900000 	ldr	r0, [r0]
80001670:	e590e000 	ldr	lr, [r0]
80001674:	e8be0003 	ldm	lr!, {r0, r1}
80001678:	e169f001 	msr	SPSR_fc, r1
8000167c:	eee10a10 	vmsr	fpscr, r0
80001680:	ecbe0b10 	vldmia	lr!, {d0-d7}
80001684:	e8de7fff 	ldm	lr, {r0, r1, r2, r3, r4, r5, r6, r7, r8, r9, sl, fp, ip, sp, lr}^
80001688:	e320f000 	nop	{0}
8000168c:	e59ee03c 	ldr	lr, [lr, #60]	; 0x3c
80001690:	e25ef004 	subs	pc, lr, #4
80001694:	e3012d68 	movw	r2, #7528	; 0x1d68
80001698:	e3013e10 	movw	r3, #7696	; 0x1e10
8000169c:	e3482000 	movt	r2, #32768	; 0x8000
800016a0:	e3483000 	movt	r3, #32768	; 0x8000
800016a4:	e3a00000 	mov	r0, #0
800016a8:	e5922000 	ldr	r2, [r2]
800016ac:	e5933000 	ldr	r3, [r3]
800016b0:	e8bd8038 	pop	{r3, r4, r5, pc}
800016b4:	80001e10 	.word	0x80001e10

800016b8 <DMTimerEnable>:
800016b8:	e5903054 	ldr	r3, [r0, #84]	; 0x54
800016bc:	e3130004 	tst	r3, #4
800016c0:	0a000003 	beq	800016d4 <DMTimerEnable+0x1c>
800016c4:	e2802048 	add	r2, r0, #72	; 0x48
800016c8:	e5923000 	ldr	r3, [r2]
800016cc:	e3130001 	tst	r3, #1
800016d0:	1afffffc 	bne	800016c8 <DMTimerEnable+0x10>
800016d4:	e5903038 	ldr	r3, [r0, #56]	; 0x38
800016d8:	e3833001 	orr	r3, r3, #1
800016dc:	e5803038 	str	r3, [r0, #56]	; 0x38
800016e0:	e12fff1e 	bx	lr

800016e4 <DMTimerModeConfigure>:
800016e4:	e5903054 	ldr	r3, [r0, #84]	; 0x54
800016e8:	e3130004 	tst	r3, #4
800016ec:	0a000003 	beq	80001700 <DMTimerModeConfigure+0x1c>
800016f0:	e2802048 	add	r2, r0, #72	; 0x48
800016f4:	e5923000 	ldr	r3, [r2]
800016f8:	e3130001 	tst	r3, #1
800016fc:	1afffffc 	bne	800016f4 <DMTimerModeConfigure+0x10>
80001700:	e5903038 	ldr	r3, [r0, #56]	; 0x38
80001704:	e3c33042 	bic	r3, r3, #66	; 0x42
80001708:	e5803038 	str	r3, [r0, #56]	; 0x38
8000170c:	e5903054 	ldr	r3, [r0, #84]	; 0x54
80001710:	e3130004 	tst	r3, #4
80001714:	0a000003 	beq	80001728 <DMTimerModeConfigure+0x44>
80001718:	e2802048 	add	r2, r0, #72	; 0x48
8000171c:	e5923000 	ldr	r3, [r2]
80001720:	e3130001 	tst	r3, #1
80001724:	1afffffc 	bne	8000171c <DMTimerModeConfigure+0x38>
80001728:	e5903038 	ldr	r3, [r0, #56]	; 0x38
8000172c:	e2011042 	and	r1, r1, #66	; 0x42
80001730:	e1831001 	orr	r1, r3, r1
80001734:	e5801038 	str	r1, [r0, #56]	; 0x38
80001738:	e12fff1e 	bx	lr

8000173c <DMTimerCounterSet>:
8000173c:	e5903054 	ldr	r3, [r0, #84]	; 0x54
80001740:	e3130004 	tst	r3, #4
80001744:	0a000003 	beq	80001758 <DMTimerCounterSet+0x1c>
80001748:	e2802048 	add	r2, r0, #72	; 0x48
8000174c:	e5923000 	ldr	r3, [r2]
80001750:	e3130002 	tst	r3, #2
80001754:	1afffffc 	bne	8000174c <DMTimerCounterSet+0x10>
80001758:	e580103c 	str	r1, [r0, #60]	; 0x3c
8000175c:	e12fff1e 	bx	lr

80001760 <DMTimerReloadSet>:
80001760:	e5903054 	ldr	r3, [r0, #84]	; 0x54
80001764:	e3130004 	tst	r3, #4
80001768:	0a000003 	beq	8000177c <DMTimerReloadSet+0x1c>
8000176c:	e2802048 	add	r2, r0, #72	; 0x48
80001770:	e5923000 	ldr	r3, [r2]
80001774:	e3130004 	tst	r3, #4
80001778:	1afffffc 	bne	80001770 <DMTimerReloadSet+0x10>
8000177c:	e5801040 	str	r1, [r0, #64]	; 0x40
80001780:	e12fff1e 	bx	lr

80001784 <DMTimerIntStatusClear>:
80001784:	e2011007 	and	r1, r1, #7
80001788:	e5801028 	str	r1, [r0, #40]	; 0x28
8000178c:	e12fff1e 	bx	lr

80001790 <DMTimerIntEnable>:
80001790:	e2011007 	and	r1, r1, #7
80001794:	e580102c 	str	r1, [r0, #44]	; 0x2c
80001798:	e12fff1e 	bx	lr

8000179c <DMTimerIntDisable>:
8000179c:	e2011007 	and	r1, r1, #7
800017a0:	e5801030 	str	r1, [r0, #48]	; 0x30
800017a4:	e12fff1e 	bx	lr

800017a8 <DMTimer2ModuleClkConfig>:
800017a8:	e3a03000 	mov	r3, #0
800017ac:	e34434e0 	movt	r3, #17632	; 0x44e0
800017b0:	e3a02002 	mov	r2, #2
800017b4:	e1a01003 	mov	r1, r3
800017b8:	e5832004 	str	r2, [r3, #4]
800017bc:	e5912004 	ldr	r2, [r1, #4]
800017c0:	e3a03000 	mov	r3, #0
800017c4:	e34434e0 	movt	r3, #17632	; 0x44e0
800017c8:	e2022003 	and	r2, r2, #3
800017cc:	e3520002 	cmp	r2, #2
800017d0:	1afffff9 	bne	800017bc <DMTimer2ModuleClkConfig+0x14>
800017d4:	e1a01003 	mov	r1, r3
800017d8:	e583200c 	str	r2, [r3, #12]
800017dc:	e591200c 	ldr	r2, [r1, #12]
800017e0:	e3a03000 	mov	r3, #0
800017e4:	e34434e0 	movt	r3, #17632	; 0x44e0
800017e8:	e2022003 	and	r2, r2, #3
800017ec:	e3520002 	cmp	r2, #2
800017f0:	1afffff9 	bne	800017dc <DMTimer2ModuleClkConfig+0x34>
800017f4:	e1a01003 	mov	r1, r3
800017f8:	e58320dc 	str	r2, [r3, #220]	; 0xdc
800017fc:	e59120dc 	ldr	r2, [r1, #220]	; 0xdc
80001800:	e3a03000 	mov	r3, #0
80001804:	e34434e0 	movt	r3, #17632	; 0x44e0
80001808:	e2022003 	and	r2, r2, #3
8000180c:	e3520002 	cmp	r2, #2
80001810:	1afffff9 	bne	800017fc <DMTimer2ModuleClkConfig+0x54>
80001814:	e1a01003 	mov	r1, r3
80001818:	e58320e0 	str	r2, [r3, #224]	; 0xe0
8000181c:	e59120e0 	ldr	r2, [r1, #224]	; 0xe0
80001820:	e3a03000 	mov	r3, #0
80001824:	e34434e0 	movt	r3, #17632	; 0x44e0
80001828:	e2022003 	and	r2, r2, #3
8000182c:	e3520002 	cmp	r2, #2
80001830:	1afffff9 	bne	8000181c <DMTimer2ModuleClkConfig+0x74>
80001834:	e1a01003 	mov	r1, r3
80001838:	e583212c 	str	r2, [r3, #300]	; 0x12c
8000183c:	e591212c 	ldr	r2, [r1, #300]	; 0x12c
80001840:	e3a03000 	mov	r3, #0
80001844:	e34434e0 	movt	r3, #17632	; 0x44e0
80001848:	e2022003 	and	r2, r2, #3
8000184c:	e3520002 	cmp	r2, #2
80001850:	1afffff9 	bne	8000183c <DMTimer2ModuleClkConfig+0x94>
80001854:	e1a01003 	mov	r1, r3
80001858:	e5832000 	str	r2, [r3]
8000185c:	e5912000 	ldr	r2, [r1]
80001860:	e3a03000 	mov	r3, #0
80001864:	e34434e0 	movt	r3, #17632	; 0x44e0
80001868:	e2022003 	and	r2, r2, #3
8000186c:	e3520002 	cmp	r2, #2
80001870:	1afffff9 	bne	8000185c <DMTimer2ModuleClkConfig+0xb4>
80001874:	e1a01003 	mov	r1, r3
80001878:	e5832060 	str	r2, [r3, #96]	; 0x60
8000187c:	e5912060 	ldr	r2, [r1, #96]	; 0x60
80001880:	e3a03000 	mov	r3, #0
80001884:	e34434e0 	movt	r3, #17632	; 0x44e0
80001888:	e2022003 	and	r2, r2, #3
8000188c:	e3520002 	cmp	r2, #2
80001890:	1afffff9 	bne	8000187c <DMTimer2ModuleClkConfig+0xd4>
80001894:	e5932508 	ldr	r2, [r3, #1288]	; 0x508
80001898:	e1a01003 	mov	r1, r3
8000189c:	e3c22003 	bic	r2, r2, #3
800018a0:	e5832508 	str	r2, [r3, #1288]	; 0x508
800018a4:	e5932508 	ldr	r2, [r3, #1288]	; 0x508
800018a8:	e3822001 	orr	r2, r2, #1
800018ac:	e5832508 	str	r2, [r3, #1288]	; 0x508
800018b0:	e5912508 	ldr	r2, [r1, #1288]	; 0x508
800018b4:	e3a03000 	mov	r3, #0
800018b8:	e34434e0 	movt	r3, #17632	; 0x44e0
800018bc:	e2022003 	and	r2, r2, #3
800018c0:	e3520001 	cmp	r2, #1
800018c4:	1afffff9 	bne	800018b0 <DMTimer2ModuleClkConfig+0x108>
800018c8:	e5931080 	ldr	r1, [r3, #128]	; 0x80
800018cc:	e1a02003 	mov	r2, r3
800018d0:	e3811002 	orr	r1, r1, #2
800018d4:	e5831080 	str	r1, [r3, #128]	; 0x80
800018d8:	e5923080 	ldr	r3, [r2, #128]	; 0x80
800018dc:	e2033003 	and	r3, r3, #3
800018e0:	e3530002 	cmp	r3, #2
800018e4:	1afffffb 	bne	800018d8 <DMTimer2ModuleClkConfig+0x130>
800018e8:	e3a02000 	mov	r2, #0
800018ec:	e34424e0 	movt	r2, #17632	; 0x44e0
800018f0:	e5923080 	ldr	r3, [r2, #128]	; 0x80
800018f4:	e3130803 	tst	r3, #196608	; 0x30000
800018f8:	1afffffc 	bne	800018f0 <DMTimer2ModuleClkConfig+0x148>
800018fc:	e3a02000 	mov	r2, #0
80001900:	e34424e0 	movt	r2, #17632	; 0x44e0
80001904:	e5923004 	ldr	r3, [r2, #4]
80001908:	e3130008 	tst	r3, #8
8000190c:	0afffffc 	beq	80001904 <DMTimer2ModuleClkConfig+0x15c>
80001910:	e3a02000 	mov	r2, #0
80001914:	e34424e0 	movt	r2, #17632	; 0x44e0
80001918:	e592300c 	ldr	r3, [r2, #12]
8000191c:	e3130010 	tst	r3, #16
80001920:	0afffffc 	beq	80001918 <DMTimer2ModuleClkConfig+0x170>
80001924:	e3a02000 	mov	r2, #0
80001928:	e34424e0 	movt	r2, #17632	; 0x44e0
8000192c:	e592312c 	ldr	r3, [r2, #300]	; 0x12c
80001930:	e3130030 	tst	r3, #48	; 0x30
80001934:	0afffffc 	beq	8000192c <DMTimer2ModuleClkConfig+0x184>
80001938:	e3a02000 	mov	r2, #0
8000193c:	e34424e0 	movt	r2, #17632	; 0x44e0
80001940:	e5923000 	ldr	r3, [r2]
80001944:	e3130c41 	tst	r3, #16640	; 0x4100
80001948:	0afffffc 	beq	80001940 <DMTimer2ModuleClkConfig+0x198>
8000194c:	e12fff1e 	bx	lr

80001950 <CacheEnable>:
80001950:	e3100001 	tst	r0, #1
80001954:	e92d4010 	push	{r4, lr}
80001958:	e1a04000 	mov	r4, r0
8000195c:	1a00000b 	bne	80001990 <CacheEnable+0x40>
80001960:	e3140002 	tst	r4, #2
80001964:	08bd8010 	popeq	{r4, pc}
80001968:	e59f304c 	ldr	r3, [pc, #76]	; 800019bc <CacheEnable+0x6c>
8000196c:	e12fff33 	blx	r3
80001970:	e3003c08 	movw	r3, #3080	; 0xc08
80001974:	e1500003 	cmp	r0, r3
80001978:	0a00000b 	beq	800019ac <CacheEnable+0x5c>
8000197c:	e59f303c 	ldr	r3, [pc, #60]	; 800019c0 <CacheEnable+0x70>
80001980:	e12fff33 	blx	r3
80001984:	e59f3038 	ldr	r3, [pc, #56]	; 800019c4 <CacheEnable+0x74>
80001988:	e12fff33 	blx	r3
8000198c:	e8bd8010 	pop	{r4, pc}
80001990:	e59f3030 	ldr	r3, [pc, #48]	; 800019c8 <CacheEnable+0x78>
80001994:	e12fff33 	blx	r3
80001998:	e59f302c 	ldr	r3, [pc, #44]	; 800019cc <CacheEnable+0x7c>
8000199c:	e12fff33 	blx	r3
800019a0:	e3140002 	tst	r4, #2
800019a4:	08bd8010 	popeq	{r4, pc}
800019a8:	eaffffee 	b	80001968 <CacheEnable+0x18>
800019ac:	e3a00002 	mov	r0, #2
800019b0:	e59f3018 	ldr	r3, [pc, #24]	; 800019d0 <CacheEnable+0x80>
800019b4:	e12fff33 	blx	r3
800019b8:	eaffffef 	b	8000197c <CacheEnable+0x2c>
800019bc:	800005f4 	.word	0x800005f4
800019c0:	800001dc 	.word	0x800001dc
800019c4:	800001cc 	.word	0x800001cc
800019c8:	80000398 	.word	0x80000398
800019cc:	800001bc 	.word	0x800001bc
800019d0:	800005cc 	.word	0x800005cc

800019d4 <strcpy>:
800019d4:	e0202001 	eor	r2, r0, r1
800019d8:	e1a0c000 	mov	ip, r0
800019dc:	e3120003 	tst	r2, #3
800019e0:	1a000032 	bne	80001ab0 <strcpy+0xdc>
800019e4:	e3110003 	tst	r1, #3
800019e8:	1a000021 	bne	80001a74 <strcpy+0xa0>
800019ec:	e52d5004 	push	{r5}		; (str r5, [sp, #-4]!)
800019f0:	e3a05001 	mov	r5, #1
800019f4:	e1855405 	orr	r5, r5, r5, lsl #8
800019f8:	e1855805 	orr	r5, r5, r5, lsl #16
800019fc:	e52d4004 	push	{r4}		; (str r4, [sp, #-4]!)
80001a00:	e3110004 	tst	r1, #4
80001a04:	e4913004 	ldr	r3, [r1], #4
80001a08:	0a000005 	beq	80001a24 <strcpy+0x50>
80001a0c:	e0432005 	sub	r2, r3, r5
80001a10:	e1d22003 	bics	r2, r2, r3
80001a14:	e1120385 	tst	r2, r5, lsl #7
80001a18:	048c3004 	streq	r3, [ip], #4
80001a1c:	04913004 	ldreq	r3, [r1], #4
80001a20:	1a00000c 	bne	80001a58 <strcpy+0x84>
80001a24:	e4914004 	ldr	r4, [r1], #4
80001a28:	e0432005 	sub	r2, r3, r5
80001a2c:	e1d22003 	bics	r2, r2, r3
80001a30:	e1120385 	tst	r2, r5, lsl #7
80001a34:	e0442005 	sub	r2, r4, r5
80001a38:	1a000006 	bne	80001a58 <strcpy+0x84>
80001a3c:	e48c3004 	str	r3, [ip], #4
80001a40:	e1d22004 	bics	r2, r2, r4
80001a44:	e1120385 	tst	r2, r5, lsl #7
80001a48:	04913004 	ldreq	r3, [r1], #4
80001a4c:	048c4004 	streq	r4, [ip], #4
80001a50:	0afffff3 	beq	80001a24 <strcpy+0x50>
80001a54:	e1a03004 	mov	r3, r4
80001a58:	e4cc3001 	strb	r3, [ip], #1
80001a5c:	e31300ff 	tst	r3, #255	; 0xff
80001a60:	e1a03463 	ror	r3, r3, #8
80001a64:	1afffffb 	bne	80001a58 <strcpy+0x84>
80001a68:	e49d4004 	pop	{r4}		; (ldr r4, [sp], #4)
80001a6c:	e49d5004 	pop	{r5}		; (ldr r5, [sp], #4)
80001a70:	e12fff1e 	bx	lr
80001a74:	e3110001 	tst	r1, #1
80001a78:	0a000003 	beq	80001a8c <strcpy+0xb8>
80001a7c:	e4d12001 	ldrb	r2, [r1], #1
80001a80:	e4cc2001 	strb	r2, [ip], #1
80001a84:	e3520000 	cmp	r2, #0
80001a88:	012fff1e 	bxeq	lr
80001a8c:	e3110002 	tst	r1, #2
80001a90:	0affffd5 	beq	800019ec <strcpy+0x18>
80001a94:	e0d120b2 	ldrh	r2, [r1], #2
80001a98:	e31200ff 	tst	r2, #255	; 0xff
80001a9c:	10cc20b2 	strhne	r2, [ip], #2
80001aa0:	05cc2000 	strbeq	r2, [ip]
80001aa4:	13120cff 	tstne	r2, #65280	; 0xff00
80001aa8:	1affffcf 	bne	800019ec <strcpy+0x18>
80001aac:	e12fff1e 	bx	lr
80001ab0:	e4d12001 	ldrb	r2, [r1], #1
80001ab4:	e4cc2001 	strb	r2, [ip], #1
80001ab8:	e3520000 	cmp	r2, #0
80001abc:	1afffffb 	bne	80001ab0 <strcpy+0xdc>
80001ac0:	e12fff1e 	bx	lr

80001ac4 <__aeabi_uidiv>:
80001ac4:	e2512001 	subs	r2, r1, #1
80001ac8:	012fff1e 	bxeq	lr
80001acc:	3a000036 	bcc	80001bac <__aeabi_uidiv+0xe8>
80001ad0:	e1500001 	cmp	r0, r1
80001ad4:	9a000022 	bls	80001b64 <__aeabi_uidiv+0xa0>
80001ad8:	e1110002 	tst	r1, r2
80001adc:	0a000023 	beq	80001b70 <__aeabi_uidiv+0xac>
80001ae0:	e311020e 	tst	r1, #-536870912	; 0xe0000000
80001ae4:	01a01181 	lsleq	r1, r1, #3
80001ae8:	03a03008 	moveq	r3, #8
80001aec:	13a03001 	movne	r3, #1
80001af0:	e3510201 	cmp	r1, #268435456	; 0x10000000
80001af4:	31510000 	cmpcc	r1, r0
80001af8:	31a01201 	lslcc	r1, r1, #4
80001afc:	31a03203 	lslcc	r3, r3, #4
80001b00:	3afffffa 	bcc	80001af0 <__aeabi_uidiv+0x2c>
80001b04:	e3510102 	cmp	r1, #-2147483648	; 0x80000000
80001b08:	31510000 	cmpcc	r1, r0
80001b0c:	31a01081 	lslcc	r1, r1, #1
80001b10:	31a03083 	lslcc	r3, r3, #1
80001b14:	3afffffa 	bcc	80001b04 <__aeabi_uidiv+0x40>
80001b18:	e3a02000 	mov	r2, #0
80001b1c:	e1500001 	cmp	r0, r1
80001b20:	20400001 	subcs	r0, r0, r1
80001b24:	21822003 	orrcs	r2, r2, r3
80001b28:	e15000a1 	cmp	r0, r1, lsr #1
80001b2c:	204000a1 	subcs	r0, r0, r1, lsr #1
80001b30:	218220a3 	orrcs	r2, r2, r3, lsr #1
80001b34:	e1500121 	cmp	r0, r1, lsr #2
80001b38:	20400121 	subcs	r0, r0, r1, lsr #2
80001b3c:	21822123 	orrcs	r2, r2, r3, lsr #2
80001b40:	e15001a1 	cmp	r0, r1, lsr #3
80001b44:	204001a1 	subcs	r0, r0, r1, lsr #3
80001b48:	218221a3 	orrcs	r2, r2, r3, lsr #3
80001b4c:	e3500000 	cmp	r0, #0
80001b50:	11b03223 	lsrsne	r3, r3, #4
80001b54:	11a01221 	lsrne	r1, r1, #4
80001b58:	1affffef 	bne	80001b1c <__aeabi_uidiv+0x58>
80001b5c:	e1a00002 	mov	r0, r2
80001b60:	e12fff1e 	bx	lr
80001b64:	03a00001 	moveq	r0, #1
80001b68:	13a00000 	movne	r0, #0
80001b6c:	e12fff1e 	bx	lr
80001b70:	e3510801 	cmp	r1, #65536	; 0x10000
80001b74:	21a01821 	lsrcs	r1, r1, #16
80001b78:	23a02010 	movcs	r2, #16
80001b7c:	33a02000 	movcc	r2, #0
80001b80:	e3510c01 	cmp	r1, #256	; 0x100
80001b84:	21a01421 	lsrcs	r1, r1, #8
80001b88:	22822008 	addcs	r2, r2, #8
80001b8c:	e3510010 	cmp	r1, #16
80001b90:	21a01221 	lsrcs	r1, r1, #4
80001b94:	22822004 	addcs	r2, r2, #4
80001b98:	e3510004 	cmp	r1, #4
80001b9c:	82822003 	addhi	r2, r2, #3
80001ba0:	908220a1 	addls	r2, r2, r1, lsr #1
80001ba4:	e1a00230 	lsr	r0, r0, r2
80001ba8:	e12fff1e 	bx	lr
80001bac:	e3500000 	cmp	r0, #0
80001bb0:	13e00000 	mvnne	r0, #0
80001bb4:	ea000059 	b	80001d20 <__aeabi_idiv0>

80001bb8 <__aeabi_uidivmod>:
80001bb8:	e3510000 	cmp	r1, #0
80001bbc:	0afffffa 	beq	80001bac <__aeabi_uidiv+0xe8>
80001bc0:	e92d4003 	push	{r0, r1, lr}
80001bc4:	ebffffbe 	bl	80001ac4 <__aeabi_uidiv>
80001bc8:	e8bd4006 	pop	{r1, r2, lr}
80001bcc:	e0030092 	mul	r3, r2, r0
80001bd0:	e0411003 	sub	r1, r1, r3
80001bd4:	e12fff1e 	bx	lr

80001bd8 <__aeabi_idiv>:
80001bd8:	e3510000 	cmp	r1, #0
80001bdc:	0a000043 	beq	80001cf0 <.divsi3_skip_div0_test+0x110>

80001be0 <.divsi3_skip_div0_test>:
80001be0:	e020c001 	eor	ip, r0, r1
80001be4:	42611000 	rsbmi	r1, r1, #0
80001be8:	e2512001 	subs	r2, r1, #1
80001bec:	0a000027 	beq	80001c90 <.divsi3_skip_div0_test+0xb0>
80001bf0:	e1b03000 	movs	r3, r0
80001bf4:	42603000 	rsbmi	r3, r0, #0
80001bf8:	e1530001 	cmp	r3, r1
80001bfc:	9a000026 	bls	80001c9c <.divsi3_skip_div0_test+0xbc>
80001c00:	e1110002 	tst	r1, r2
80001c04:	0a000028 	beq	80001cac <.divsi3_skip_div0_test+0xcc>
80001c08:	e311020e 	tst	r1, #-536870912	; 0xe0000000
80001c0c:	01a01181 	lsleq	r1, r1, #3
80001c10:	03a02008 	moveq	r2, #8
80001c14:	13a02001 	movne	r2, #1
80001c18:	e3510201 	cmp	r1, #268435456	; 0x10000000
80001c1c:	31510003 	cmpcc	r1, r3
80001c20:	31a01201 	lslcc	r1, r1, #4
80001c24:	31a02202 	lslcc	r2, r2, #4
80001c28:	3afffffa 	bcc	80001c18 <.divsi3_skip_div0_test+0x38>
80001c2c:	e3510102 	cmp	r1, #-2147483648	; 0x80000000
80001c30:	31510003 	cmpcc	r1, r3
80001c34:	31a01081 	lslcc	r1, r1, #1
80001c38:	31a02082 	lslcc	r2, r2, #1
80001c3c:	3afffffa 	bcc	80001c2c <.divsi3_skip_div0_test+0x4c>
80001c40:	e3a00000 	mov	r0, #0
80001c44:	e1530001 	cmp	r3, r1
80001c48:	20433001 	subcs	r3, r3, r1
80001c4c:	21800002 	orrcs	r0, r0, r2
80001c50:	e15300a1 	cmp	r3, r1, lsr #1
80001c54:	204330a1 	subcs	r3, r3, r1, lsr #1
80001c58:	218000a2 	orrcs	r0, r0, r2, lsr #1
80001c5c:	e1530121 	cmp	r3, r1, lsr #2
80001c60:	20433121 	subcs	r3, r3, r1, lsr #2
80001c64:	21800122 	orrcs	r0, r0, r2, lsr #2
80001c68:	e15301a1 	cmp	r3, r1, lsr #3
80001c6c:	204331a1 	subcs	r3, r3, r1, lsr #3
80001c70:	218001a2 	orrcs	r0, r0, r2, lsr #3
80001c74:	e3530000 	cmp	r3, #0
80001c78:	11b02222 	lsrsne	r2, r2, #4
80001c7c:	11a01221 	lsrne	r1, r1, #4
80001c80:	1affffef 	bne	80001c44 <.divsi3_skip_div0_test+0x64>
80001c84:	e35c0000 	cmp	ip, #0
80001c88:	42600000 	rsbmi	r0, r0, #0
80001c8c:	e12fff1e 	bx	lr
80001c90:	e13c0000 	teq	ip, r0
80001c94:	42600000 	rsbmi	r0, r0, #0
80001c98:	e12fff1e 	bx	lr
80001c9c:	33a00000 	movcc	r0, #0
80001ca0:	01a00fcc 	asreq	r0, ip, #31
80001ca4:	03800001 	orreq	r0, r0, #1
80001ca8:	e12fff1e 	bx	lr
80001cac:	e3510801 	cmp	r1, #65536	; 0x10000
80001cb0:	21a01821 	lsrcs	r1, r1, #16
80001cb4:	23a02010 	movcs	r2, #16
80001cb8:	33a02000 	movcc	r2, #0
80001cbc:	e3510c01 	cmp	r1, #256	; 0x100
80001cc0:	21a01421 	lsrcs	r1, r1, #8
80001cc4:	22822008 	addcs	r2, r2, #8
80001cc8:	e3510010 	cmp	r1, #16
80001ccc:	21a01221 	lsrcs	r1, r1, #4
80001cd0:	22822004 	addcs	r2, r2, #4
80001cd4:	e3510004 	cmp	r1, #4
80001cd8:	82822003 	addhi	r2, r2, #3
80001cdc:	908220a1 	addls	r2, r2, r1, lsr #1
80001ce0:	e35c0000 	cmp	ip, #0
80001ce4:	e1a00233 	lsr	r0, r3, r2
80001ce8:	42600000 	rsbmi	r0, r0, #0
80001cec:	e12fff1e 	bx	lr
80001cf0:	e3500000 	cmp	r0, #0
80001cf4:	c3e00102 	mvngt	r0, #-2147483648	; 0x80000000
80001cf8:	b3a00102 	movlt	r0, #-2147483648	; 0x80000000
80001cfc:	ea000007 	b	80001d20 <__aeabi_idiv0>

80001d00 <__aeabi_idivmod>:
80001d00:	e3510000 	cmp	r1, #0
80001d04:	0afffff9 	beq	80001cf0 <.divsi3_skip_div0_test+0x110>
80001d08:	e92d4003 	push	{r0, r1, lr}
80001d0c:	ebffffb3 	bl	80001be0 <.divsi3_skip_div0_test>
80001d10:	e8bd4006 	pop	{r1, r2, lr}
80001d14:	e0030092 	mul	r3, r2, r0
80001d18:	e0411003 	sub	r1, r1, r3
80001d1c:	e12fff1e 	bx	lr

80001d20 <__aeabi_idiv0>:
80001d20:	e12fff1e 	bx	lr
80001d24:	00646162 	.word	0x00646162

80001d28 <vecTbl>:
80001d28:	e59ff018 e59ff018 e59ff018 e59ff018     ................
80001d38:	e59ff014 e24ff008 e59ff010 e59ff010     ......O.........
80001d48:	80000000 800006e4 800007e8 800006e4     ................
80001d58:	800008a8 800006e0 454c4449 00000000     ........IDLE....
